MSP430 Assembler PC v4.3.1 Wed Oct 01 17:44:05 2014

Tools Copyright (c) 2003-2014 Texas Instruments Incorporated
C:\Users\x0135533\AppData\Local\Temp\0627211                         PAGE    1

       1            ;******************************************************************************
       2            ;* MSP430 C/C++ Codegen                                             PC v4.3.1 *
       3            ;* Date/Time created: Wed Oct 01 17:44:04 2014                                *
       4            ;******************************************************************************
       5                    .compiler_opts --abi=coffabi --hll_source=on --mem_model:code=large --mem_model:data=small --o
       6            
       7            $C$DW$CU        .dwtag  DW_TAG_compile_unit
       8                    .dwattr $C$DW$CU, DW_AT_name("C:/ti/CC3000 SDK/MSP430FR5739/Basic WiFi Application/Basic WiFi 
       9                    .dwattr $C$DW$CU, DW_AT_producer("TI MSP430 C/C++ Codegen PC v4.3.1 Copyright (c) 2003-2014 Te
      10                    .dwattr $C$DW$CU, DW_AT_TI_version(0x01)
      11                    .dwattr $C$DW$CU, DW_AT_comp_dir("C:\ti\CC3000 SDK\MSP430FR5739\Basic WiFi Application\Basic W
      12            
      13            $C$DW$1 .dwtag  DW_TAG_subprogram, DW_AT_name("SimpleLinkWaitEvent")
      14                    .dwattr $C$DW$1, DW_AT_TI_symbol_name("SimpleLinkWaitEvent")
      15                    .dwattr $C$DW$1, DW_AT_declaration
      16                    .dwattr $C$DW$1, DW_AT_external
      17            $C$DW$2 .dwtag  DW_TAG_formal_parameter
      18                    .dwattr $C$DW$2, DW_AT_type(*$C$DW$T$19)
      19            $C$DW$3 .dwtag  DW_TAG_formal_parameter
      20                    .dwattr $C$DW$3, DW_AT_type(*$C$DW$T$3)
      21                    .dwendtag $C$DW$1
      22            
      23            
      24            $C$DW$4 .dwtag  DW_TAG_subprogram, DW_AT_name("UINT32_TO_STREAM_f")
      25                    .dwattr $C$DW$4, DW_AT_TI_symbol_name("UINT32_TO_STREAM_f")
      26                    .dwattr $C$DW$4, DW_AT_type(*$C$DW$T$21)
      27                    .dwattr $C$DW$4, DW_AT_declaration
      28                    .dwattr $C$DW$4, DW_AT_external
      29            $C$DW$5 .dwtag  DW_TAG_formal_parameter
      30                    .dwattr $C$DW$5, DW_AT_type(*$C$DW$T$21)
      31            $C$DW$6 .dwtag  DW_TAG_formal_parameter
      32                    .dwattr $C$DW$6, DW_AT_type(*$C$DW$T$25)
      33                    .dwendtag $C$DW$4
      34            
      35            
      36            $C$DW$7 .dwtag  DW_TAG_subprogram, DW_AT_name("UINT16_TO_STREAM_f")
      37                    .dwattr $C$DW$7, DW_AT_TI_symbol_name("UINT16_TO_STREAM_f")
      38                    .dwattr $C$DW$7, DW_AT_type(*$C$DW$T$21)
      39                    .dwattr $C$DW$7, DW_AT_declaration
      40                    .dwattr $C$DW$7, DW_AT_external
      41            $C$DW$8 .dwtag  DW_TAG_formal_parameter
      42                    .dwattr $C$DW$8, DW_AT_type(*$C$DW$T$21)
      43            $C$DW$9 .dwtag  DW_TAG_formal_parameter
      44                    .dwattr $C$DW$9, DW_AT_type(*$C$DW$T$19)
      45                    .dwendtag $C$DW$7
      46            
      47            
      48            $C$DW$10        .dwtag  DW_TAG_subprogram, DW_AT_name("hci_command_send")
      49                    .dwattr $C$DW$10, DW_AT_TI_symbol_name("hci_command_send")
      50                    .dwattr $C$DW$10, DW_AT_type(*$C$DW$T$19)
      51                    .dwattr $C$DW$10, DW_AT_declaration
      52                    .dwattr $C$DW$10, DW_AT_external
      53            $C$DW$11        .dwtag  DW_TAG_formal_parameter
      54                    .dwattr $C$DW$11, DW_AT_type(*$C$DW$T$19)
      55            $C$DW$12        .dwtag  DW_TAG_formal_parameter
MSP430 Assembler PC v4.3.1 Wed Oct 01 17:44:05 2014

Tools Copyright (c) 2003-2014 Texas Instruments Incorporated
C:\Users\x0135533\AppData\Local\Temp\0627211                         PAGE    2

      56                    .dwattr $C$DW$12, DW_AT_type(*$C$DW$T$21)
      57            $C$DW$13        .dwtag  DW_TAG_formal_parameter
      58                    .dwattr $C$DW$13, DW_AT_type(*$C$DW$T$20)
      59                    .dwendtag $C$DW$10
      60            
      61            
      62            $C$DW$14        .dwtag  DW_TAG_subprogram, DW_AT_name("SpiOpen")
      63                    .dwattr $C$DW$14, DW_AT_TI_symbol_name("SpiOpen")
      64                    .dwattr $C$DW$14, DW_AT_declaration
      65                    .dwattr $C$DW$14, DW_AT_external
      66            $C$DW$15        .dwtag  DW_TAG_formal_parameter
      67                    .dwattr $C$DW$15, DW_AT_type(*$C$DW$T$67)
      68                    .dwendtag $C$DW$14
      69            
      70            
      71            $C$DW$16        .dwtag  DW_TAG_subprogram, DW_AT_name("SpiClose")
      72                    .dwattr $C$DW$16, DW_AT_TI_symbol_name("SpiClose")
      73                    .dwattr $C$DW$16, DW_AT_declaration
      74                    .dwattr $C$DW$16, DW_AT_external
      75            
      76            $C$DW$17        .dwtag  DW_TAG_subprogram, DW_AT_name("hci_unsolicited_event_handler")
      77                    .dwattr $C$DW$17, DW_AT_TI_symbol_name("hci_unsolicited_event_handler")
      78                    .dwattr $C$DW$17, DW_AT_type(*$C$DW$T$32)
      79                    .dwattr $C$DW$17, DW_AT_declaration
      80                    .dwattr $C$DW$17, DW_AT_external
      81            $C$DW$18        .dwtag  DW_TAG_variable, DW_AT_name("_Errno")
      82                    .dwattr $C$DW$18, DW_AT_TI_symbol_name("_Errno")
      83                    .dwattr $C$DW$18, DW_AT_type(*$C$DW$T$10)
      84                    .dwattr $C$DW$18, DW_AT_declaration
      85                    .dwattr $C$DW$18, DW_AT_external
      86            $C$DW$19        .dwtag  DW_TAG_variable, DW_AT_name("wlan_tx_buffer")
      87                    .dwattr $C$DW$19, DW_AT_TI_symbol_name("wlan_tx_buffer")
      88                    .dwattr $C$DW$19, DW_AT_type(*$C$DW$T$76)
      89                    .dwattr $C$DW$19, DW_AT_declaration
      90                    .dwattr $C$DW$19, DW_AT_external
      91                    .global tSLInformation
      92 000000               .bss    tSLInformation,62,2
      93            $C$DW$20        .dwtag  DW_TAG_variable, DW_AT_name("tSLInformation")
      94                    .dwattr $C$DW$20, DW_AT_TI_symbol_name("tSLInformation")
      95                    .dwattr $C$DW$20, DW_AT_location[DW_OP_addr tSLInformation]
      96                    .dwattr $C$DW$20, DW_AT_type(*$C$DW$T$49)
      97                    .dwattr $C$DW$20, DW_AT_external
      98            
      99            $C$DW$21        .dwtag  DW_TAG_subprogram, DW_AT_name("memset")
     100                    .dwattr $C$DW$21, DW_AT_TI_symbol_name("memset")
     101                    .dwattr $C$DW$21, DW_AT_type(*$C$DW$T$3)
     102                    .dwattr $C$DW$21, DW_AT_declaration
     103                    .dwattr $C$DW$21, DW_AT_external
     104            ;       c:\ti\ccsv6\tools\compiler\msp430_4.3.1\bin\opt430.exe C:\\Users\\x0135533\\AppData\\Local\\Te
     105 000000               .sect   ".text:SpiReceiveHandler"
     106                    .align  2
     107                    .clink
     108                    .global SpiReceiveHandler
     109            
     110            $C$DW$22        .dwtag  DW_TAG_subprogram, DW_AT_name("SpiReceiveHandler")
MSP430 Assembler PC v4.3.1 Wed Oct 01 17:44:05 2014

Tools Copyright (c) 2003-2014 Texas Instruments Incorporated
C:\Users\x0135533\AppData\Local\Temp\0627211                         PAGE    3

     111                    .dwattr $C$DW$22, DW_AT_low_pc(SpiReceiveHandler)
     112                    .dwattr $C$DW$22, DW_AT_high_pc(0x00)
     113                    .dwattr $C$DW$22, DW_AT_TI_symbol_name("SpiReceiveHandler")
     114                    .dwattr $C$DW$22, DW_AT_external
     115                    .dwattr $C$DW$22, DW_AT_TI_begin_file("C:/ti/CC3000 SDK/MSP430FR5739/Basic WiFi Application/Ba
     116                    .dwattr $C$DW$22, DW_AT_TI_begin_line(0xdb)
     117                    .dwattr $C$DW$22, DW_AT_TI_begin_column(0x06)
     118                    .dwattr $C$DW$22, DW_AT_TI_max_frame_size(0x04)
     119                    .dwpsn  file "C:/ti/CC3000 SDK/MSP430FR5739/Basic WiFi Application/Basic WiFi Source/Source/CC
     120            
     121                    .dwfde $C$DW$CIE, SpiReceiveHandler
     122            $C$DW$23        .dwtag  DW_TAG_formal_parameter, DW_AT_name("pvBuffer")
     123                    .dwattr $C$DW$23, DW_AT_TI_symbol_name("pvBuffer")
     124                    .dwattr $C$DW$23, DW_AT_type(*$C$DW$T$3)
     125                    .dwattr $C$DW$23, DW_AT_location[DW_OP_reg12]
     126            
     127            ;*****************************************************************************
     128            ;* FUNCTION NAME: SpiReceiveHandler                                          *
     129            ;*                                                                           *
     130            ;*   Regs Modified     : SR,r11,r12,r13,r14,r15                              *
     131            ;*   Regs Used         : SR,r11,r12,r13,r14,r15                              *
     132            ;*   Local Frame Size  : 0 Args + 0 Auto + 0 Save = 0 byte                   *
     133            ;*****************************************************************************
     134            SpiReceiveHandler:
     135            ;* --------------------------------------------------------------------------*
     136            ;* r12   assigned to pvBuffer
     137            $C$DW$24        .dwtag  DW_TAG_variable, DW_AT_name("pvBuffer")
     138                    .dwattr $C$DW$24, DW_AT_TI_symbol_name("pvBuffer")
     139                    .dwattr $C$DW$24, DW_AT_type(*$C$DW$T$52)
     140                    .dwattr $C$DW$24, DW_AT_location[DW_OP_reg12]
     141                    .dwcfi  cfa_offset, 4
     142                    .dwcfi  save_reg_to_mem, 16, -4
     143                    .dwpsn  file "C:/ti/CC3000 SDK/MSP430FR5739/Basic WiFi Application/Basic WiFi Source/Source/CC
     144 000000 4392          MOV.W     #1,&tSLInformation+2  ; [] |221| 
         000002 0002!
     145                    .dwpsn  file "C:/ti/CC3000 SDK/MSP430FR5739/Basic WiFi Application/Basic WiFi Source/Source/CC
     146 000004 4C82          MOV.W     r12,&tSLInformation+4 ; [] |222| 
         000006 0004!
     147                    .dwpsn  file "C:/ti/CC3000 SDK/MSP430FR5739/Basic WiFi Application/Basic WiFi Source/Source/CC
     148            $C$DW$25        .dwtag  DW_TAG_TI_branch
     149                    .dwattr $C$DW$25, DW_AT_low_pc(0x00)
     150                    .dwattr $C$DW$25, DW_AT_name("hci_unsolicited_event_handler")
     151                    .dwattr $C$DW$25, DW_AT_TI_call
     152                    .dwattr $C$DW$25, DW_AT_TI_return
     153 000008 0080!         MOVX.A    #hci_unsolicited_event_handler,PC ; [] |224| 
         00000a 0000 
     154                                                      ; [] |224| 
     155                    .dwattr $C$DW$22, DW_AT_TI_end_file("C:/ti/CC3000 SDK/MSP430FR5739/Basic WiFi Application/Basi
     156                    .dwattr $C$DW$22, DW_AT_TI_end_line(0xe1)
     157                    .dwattr $C$DW$22, DW_AT_TI_end_column(0x01)
     158                    .dwendentry
     159                    .dwendtag $C$DW$22
     160            
     161 000000               .sect   ".text:wlan_stop"
     162                    .align  2
MSP430 Assembler PC v4.3.1 Wed Oct 01 17:44:05 2014

Tools Copyright (c) 2003-2014 Texas Instruments Incorporated
C:\Users\x0135533\AppData\Local\Temp\0627211                         PAGE    4

     163                    .clink
     164                    .global wlan_stop
     165            
     166            $C$DW$26        .dwtag  DW_TAG_subprogram, DW_AT_name("wlan_stop")
     167                    .dwattr $C$DW$26, DW_AT_low_pc(wlan_stop)
     168                    .dwattr $C$DW$26, DW_AT_high_pc(0x00)
     169                    .dwattr $C$DW$26, DW_AT_TI_symbol_name("wlan_stop")
     170                    .dwattr $C$DW$26, DW_AT_external
     171                    .dwattr $C$DW$26, DW_AT_TI_begin_file("C:/ti/CC3000 SDK/MSP430FR5739/Basic WiFi Application/Ba
     172                    .dwattr $C$DW$26, DW_AT_TI_begin_line(0x144)
     173                    .dwattr $C$DW$26, DW_AT_TI_begin_column(0x06)
     174                    .dwattr $C$DW$26, DW_AT_TI_max_frame_size(0x04)
     175                    .dwpsn  file "C:/ti/CC3000 SDK/MSP430FR5739/Basic WiFi Application/Basic WiFi Source/Source/CC
     176            
     177                    .dwfde $C$DW$CIE, wlan_stop
     178            
     179            ;*****************************************************************************
     180            ;* FUNCTION NAME: wlan_stop                                                  *
     181            ;*                                                                           *
     182            ;*   Regs Modified     : SR,r11,r12,r13,r14,r15                              *
     183            ;*   Regs Used         : SR,r11,r12,r13,r14,r15                              *
     184            ;*   Local Frame Size  : 0 Args + 0 Auto + 0 Save = 0 byte                   *
     185            ;*****************************************************************************
     186 000000       wlan_stop:
     187            ;* --------------------------------------------------------------------------*
     188                    .dwcfi  cfa_offset, 4
     189                    .dwcfi  save_reg_to_mem, 16, -4
     190                    .dwpsn  file "C:/ti/CC3000 SDK/MSP430FR5739/Basic WiFi Application/Basic WiFi Source/Source/CC
     191 000000 434C          MOV.B     #0,r12                ; [] |327| 
     192            $C$DW$27        .dwtag  DW_TAG_TI_branch
     193                    .dwattr $C$DW$27, DW_AT_low_pc(0x00)
     194                    .dwattr $C$DW$27, DW_AT_TI_call
     195                    .dwattr $C$DW$27, DW_AT_TI_indirect
     196 000002 1380!         CALLA     &tSLInformation+36    ; [] |327| 
         000004 0024 
     197                                                      ; [] |327| 
     198            ;* --------------------------------------------------------------------------*
     199            ;*   BEGIN LOOP $C$L1
     200            ;*
     201            ;*   Loop source line                : 330
     202            ;*   Loop closing brace source line  : 332
     203            ;*   Known Minimum Trip Count        : 1
     204            ;*   Known Maximum Trip Count        : 4294967295
     205            ;*   Known Max Trip Count Factor     : 1
     206            ;* --------------------------------------------------------------------------*
     207 000006       $C$L1:    
     208                    .dwpsn  file "C:/ti/CC3000 SDK/MSP430FR5739/Basic WiFi Application/Basic WiFi Source/Source/CC
     209            $C$DW$28        .dwtag  DW_TAG_TI_branch
     210                    .dwattr $C$DW$28, DW_AT_low_pc(0x00)
     211                    .dwattr $C$DW$28, DW_AT_TI_call
     212                    .dwattr $C$DW$28, DW_AT_TI_indirect
     213 000006 1380!         CALLA     &tSLInformation+24    ; [] |330| 
         000008 0018 
     214                                                      ; [] |330| 
     215 00000a 930D          TST.W     r13                   ; [] |330| 
MSP430 Assembler PC v4.3.1 Wed Oct 01 17:44:05 2014

Tools Copyright (c) 2003-2014 Texas Instruments Incorporated
C:\Users\x0135533\AppData\Local\Temp\0627211                         PAGE    5

     216 00000c 2002          JNE       $C$L2                 ; [] |330| 
     217                                                      ; [] |330| 
     218            ;* --------------------------------------------------------------------------*
     219 00000e 930C          TST.W     r12                   ; [] |330| 
     220 000010 27FA          JEQ       $C$L1                 ; [] |330| 
     221                                                      ; [] |330| 
     222            ;* --------------------------------------------------------------------------*
     223 000012       $C$L2:    
     224                    .dwpsn  file "C:/ti/CC3000 SDK/MSP430FR5739/Basic WiFi Application/Basic WiFi Source/Source/CC
     225 000012 9382          TST.W     &tSLInformation+6     ; [] |335| 
         000014 0006!
     226 000016 2402          JEQ       $C$L3                 ; [] |335| 
     227                                                      ; [] |335| 
     228            ;* --------------------------------------------------------------------------*
     229                    .dwpsn  file "C:/ti/CC3000 SDK/MSP430FR5739/Basic WiFi Application/Basic WiFi Source/Source/CC
     230 000018 4382          MOV.W     #0,&tSLInformation+6  ; [] |337| 
         00001a 0006!
     231            ;* --------------------------------------------------------------------------*
     232 00001c       $C$L3:    
     233                    .dwpsn  file "C:/ti/CC3000 SDK/MSP430FR5739/Basic WiFi Application/Basic WiFi Source/Source/CC
     234            $C$DW$29        .dwtag  DW_TAG_TI_branch
     235                    .dwattr $C$DW$29, DW_AT_low_pc(0x00)
     236                    .dwattr $C$DW$29, DW_AT_name("SpiClose")
     237                    .dwattr $C$DW$29, DW_AT_TI_call
     238                    .dwattr $C$DW$29, DW_AT_TI_return
     239 00001c 0080!         MOVX.A    #SpiClose,PC          ; [] |340| 
         00001e 0000 
     240                                                      ; [] |340| 
     241                    .dwattr $C$DW$26, DW_AT_TI_end_file("C:/ti/CC3000 SDK/MSP430FR5739/Basic WiFi Application/Basi
     242                    .dwattr $C$DW$26, DW_AT_TI_end_line(0x155)
     243                    .dwattr $C$DW$26, DW_AT_TI_end_column(0x01)
     244                    .dwendentry
     245                    .dwendtag $C$DW$26
     246            
     247 000000               .sect   ".text:wlan_start"
     248                    .align  2
     249                    .clink
     250                    .global wlan_start
     251            
     252            $C$DW$30        .dwtag  DW_TAG_subprogram, DW_AT_name("wlan_start")
     253                    .dwattr $C$DW$30, DW_AT_low_pc(wlan_start)
     254                    .dwattr $C$DW$30, DW_AT_high_pc(0x00)
     255                    .dwattr $C$DW$30, DW_AT_TI_symbol_name("wlan_start")
     256                    .dwattr $C$DW$30, DW_AT_external
     257                    .dwattr $C$DW$30, DW_AT_TI_begin_file("C:/ti/CC3000 SDK/MSP430FR5739/Basic WiFi Application/Ba
     258                    .dwattr $C$DW$30, DW_AT_TI_begin_line(0xff)
     259                    .dwattr $C$DW$30, DW_AT_TI_begin_column(0x06)
     260                    .dwattr $C$DW$30, DW_AT_TI_max_frame_size(0x10)
     261                    .dwpsn  file "C:/ti/CC3000 SDK/MSP430FR5739/Basic WiFi Application/Basic WiFi Source/Source/CC
     262            
     263                    .dwfde $C$DW$CIE, wlan_start
     264            $C$DW$31        .dwtag  DW_TAG_formal_parameter, DW_AT_name("usPatchesAvailableAtHost")
     265                    .dwattr $C$DW$31, DW_AT_TI_symbol_name("usPatchesAvailableAtHost")
     266                    .dwattr $C$DW$31, DW_AT_type(*$C$DW$T$19)
     267                    .dwattr $C$DW$31, DW_AT_location[DW_OP_reg12]
MSP430 Assembler PC v4.3.1 Wed Oct 01 17:44:05 2014

Tools Copyright (c) 2003-2014 Texas Instruments Incorporated
C:\Users\x0135533\AppData\Local\Temp\0627211                         PAGE    6

     268            
     269            ;*****************************************************************************
     270            ;* FUNCTION NAME: wlan_start                                                 *
     271            ;*                                                                           *
     272            ;*   Regs Modified     : SP,SR,r8,r9,r10,r11,r12,r13,r14,r15                 *
     273            ;*   Regs Used         : SP,SR,r8,r9,r10,r11,r12,r13,r14,r15                 *
     274            ;*   Local Frame Size  : 0 Args + 0 Auto + 12 Save = 12 byte                 *
     275            ;*****************************************************************************
     276            wlan_start:
     277            ;* --------------------------------------------------------------------------*
     278            ;* r13   assigned to ptr
     279            $C$DW$32        .dwtag  DW_TAG_variable, DW_AT_name("ptr")
     280                    .dwattr $C$DW$32, DW_AT_TI_symbol_name("ptr")
     281                    .dwattr $C$DW$32, DW_AT_type(*$C$DW$T$21)
     282                    .dwattr $C$DW$32, DW_AT_location[DW_OP_reg13]
     283            ;* r15   assigned to args
     284            $C$DW$33        .dwtag  DW_TAG_variable, DW_AT_name("args")
     285                    .dwattr $C$DW$33, DW_AT_TI_symbol_name("args")
     286                    .dwattr $C$DW$33, DW_AT_type(*$C$DW$T$21)
     287                    .dwattr $C$DW$33, DW_AT_location[DW_OP_reg15]
     288            ;* r14   assigned to $O$S1
     289            ;* r8    assigned to ulSpiIRQState
     290            $C$DW$34        .dwtag  DW_TAG_variable, DW_AT_name("ulSpiIRQState")
     291                    .dwattr $C$DW$34, DW_AT_TI_symbol_name("ulSpiIRQState")
     292                    .dwattr $C$DW$34, DW_AT_type(*$C$DW$T$25)
     293                    .dwattr $C$DW$34, DW_AT_location[DW_OP_reg8 DW_OP_piece 2 DW_OP_reg9 DW_OP_piece 2]
     294            ;* r10   assigned to usPatchesAvailableAtHost
     295            $C$DW$35        .dwtag  DW_TAG_variable, DW_AT_name("usPatchesAvailableAtHost")
     296                    .dwattr $C$DW$35, DW_AT_TI_symbol_name("usPatchesAvailableAtHost")
     297                    .dwattr $C$DW$35, DW_AT_type(*$C$DW$T$91)
     298                    .dwattr $C$DW$35, DW_AT_location[DW_OP_reg10]
     299                    .dwcfi  cfa_offset, 4
     300                    .dwcfi  save_reg_to_mem, 16, -4
     301 000000 142A          PUSHM.A   #3,r10                ; [] 
     302                    .dwcfi  save_reg_to_mem, 10, -8
     303                    .dwcfi  save_reg_to_mem, 9, -12
     304                    .dwcfi  save_reg_to_mem, 8, -16
     305                    .dwcfi  cfa_offset, 16
     306 000002 0CCA          MOVA      r12,r10               ; [] |256| 
     307                    .dwpsn  file "C:/ti/CC3000 SDK/MSP430FR5739/Basic WiFi Application/Basic WiFi Source/Source/CC
     308 000004 1800!         MOVX.A    #0,&tSLInformation+52 ; [] |260| 
         000006 43C2 
         000008 0034 
     309                    .dwpsn  file "C:/ti/CC3000 SDK/MSP430FR5739/Basic WiFi Application/Basic WiFi Source/Source/CC
     310 00000a 1800!         MOVX.A    #0,&tSLInformation+56 ; [] |261| 
         00000c 43C2 
         00000e 0038 
     311                    .dwpsn  file "C:/ti/CC3000 SDK/MSP430FR5739/Basic WiFi Application/Basic WiFi Source/Source/CC
     312 000010 4382          MOV.W     #0,&tSLInformation+0  ; [] |262| 
         000012 0000!
     313                    .dwpsn  file "C:/ti/CC3000 SDK/MSP430FR5739/Basic WiFi Application/Basic WiFi Source/Source/CC
     314 000014 4382          MOV.W     #0,&tSLInformation+44 ; [] |263| 
         000016 002C!
     315                    .dwpsn  file "C:/ti/CC3000 SDK/MSP430FR5739/Basic WiFi Application/Basic WiFi Source/Source/CC
     316 000018 4382          MOV.W     #0,&tSLInformation+46 ; [] |264| 
MSP430 Assembler PC v4.3.1 Wed Oct 01 17:44:05 2014

Tools Copyright (c) 2003-2014 Texas Instruments Incorporated
C:\Users\x0135533\AppData\Local\Temp\0627211                         PAGE    7

         00001a 002E!
     317                    .dwpsn  file "C:/ti/CC3000 SDK/MSP430FR5739/Basic WiFi Application/Basic WiFi Source/Source/CC
     318 00001c 4382          MOV.W     #0,&tSLInformation+48 ; [] |265| 
         00001e 0030!
     319                    .dwpsn  file "C:/ti/CC3000 SDK/MSP430FR5739/Basic WiFi Application/Basic WiFi Source/Source/CC
     320 000020 4382          MOV.W     #0,&tSLInformation+50 ; [] |266| 
         000022 0032!
     321                    .dwpsn  file "C:/ti/CC3000 SDK/MSP430FR5739/Basic WiFi Application/Basic WiFi Source/Source/CC
     322 000024 1800!         MOVX.A    #0,&tSLInformation+40 ; [] |267| 
         000026 43C2 
         000028 0028 
     323                    .dwpsn  file "C:/ti/CC3000 SDK/MSP430FR5739/Basic WiFi Application/Basic WiFi Source/Source/CC
     324 00002a 4382          MOV.W     #0,&tSLInformation+2  ; [] |268| 
         00002c 0002!
     325                    .dwpsn  file "C:/ti/CC3000 SDK/MSP430FR5739/Basic WiFi Application/Basic WiFi Source/Source/CC
     326 00002e 4382          MOV.W     #0,&tSLInformation+4  ; [] |269| 
         000030 0004!
     327                    .dwpsn  file "C:/ti/CC3000 SDK/MSP430FR5739/Basic WiFi Application/Basic WiFi Source/Source/CC
     328 000032 40B2          MOV.W     #wlan_tx_buffer+0,&tSLInformation+6 ; [] |272| 
         000034 0000!
         000036 0006!
     329                    .dwpsn  file "C:/ti/CC3000 SDK/MSP430FR5739/Basic WiFi Application/Basic WiFi Source/Source/CC
     330 000038 008C!         MOVX.A    #SpiReceiveHandler+0,r12 ; [] |275| 
         00003a 0000 
     331            $C$DW$36        .dwtag  DW_TAG_TI_branch
     332                    .dwattr $C$DW$36, DW_AT_low_pc(0x00)
     333                    .dwattr $C$DW$36, DW_AT_name("SpiOpen")
     334                    .dwattr $C$DW$36, DW_AT_TI_call
     335 00003c 13B0!         CALLA     #SpiOpen              ; [] |275| 
         00003e 0000 
     336                                                      ; [] |275| 
     337                    .dwpsn  file "C:/ti/CC3000 SDK/MSP430FR5739/Basic WiFi Application/Basic WiFi Source/Source/CC
     338            $C$DW$37        .dwtag  DW_TAG_TI_branch
     339                    .dwattr $C$DW$37, DW_AT_low_pc(0x00)
     340                    .dwattr $C$DW$37, DW_AT_TI_call
     341                    .dwattr $C$DW$37, DW_AT_TI_indirect
     342 000040 1380!         CALLA     &tSLInformation+24    ; [] |278| 
         000042 0018 
     343                                                      ; [] |278| 
     344 000044 0CC8          MOVA      r12,r8                ; [] |278| 
     345 000046 0DC9          MOVA      r13,r9                ; [] |278| 
     346                    .dwpsn  file "C:/ti/CC3000 SDK/MSP430FR5739/Basic WiFi Application/Basic WiFi Source/Source/CC
     347 000048 435C          MOV.B     #1,r12                ; [] |281| 
     348            $C$DW$38        .dwtag  DW_TAG_TI_branch
     349                    .dwattr $C$DW$38, DW_AT_low_pc(0x00)
     350                    .dwattr $C$DW$38, DW_AT_TI_call
     351                    .dwattr $C$DW$38, DW_AT_TI_indirect
     352 00004a 1380!         CALLA     &tSLInformation+36    ; [] |281| 
         00004c 0024 
     353                                                      ; [] |281| 
     354                    .dwpsn  file "C:/ti/CC3000 SDK/MSP430FR5739/Basic WiFi Application/Basic WiFi Source/Source/CC
     355 00004e 9309          TST.W     r9                    ; [] |283| 
     356 000050 200F          JNE       $C$L6                 ; [] |283| 
     357                                                      ; [] |283| 
     358            ;* --------------------------------------------------------------------------*
MSP430 Assembler PC v4.3.1 Wed Oct 01 17:44:05 2014

Tools Copyright (c) 2003-2014 Texas Instruments Incorporated
C:\Users\x0135533\AppData\Local\Temp\0627211                         PAGE    8

     359 000052 9308          TST.W     r8                    ; [] |283| 
     360 000054 200D          JNE       $C$L6                 ; [] |283| 
     361                                                      ; [] |283| 
     362            ;* --------------------------------------------------------------------------*
     363            ;*   BEGIN LOOP $C$L4
     364            ;*
     365            ;*   Loop source line                : 293
     366            ;*   Loop closing brace source line  : 295
     367            ;*   Known Minimum Trip Count        : 1
     368            ;*   Known Maximum Trip Count        : 4294967295
     369            ;*   Known Max Trip Count Factor     : 1
     370            ;* --------------------------------------------------------------------------*
     371 000056       $C$L4:    
     372                    .dwpsn  file "C:/ti/CC3000 SDK/MSP430FR5739/Basic WiFi Application/Basic WiFi Source/Source/CC
     373            $C$DW$39        .dwtag  DW_TAG_TI_branch
     374                    .dwattr $C$DW$39, DW_AT_low_pc(0x00)
     375                    .dwattr $C$DW$39, DW_AT_TI_call
     376                    .dwattr $C$DW$39, DW_AT_TI_indirect
     377 000056 1380!         CALLA     &tSLInformation+24    ; [] |293| 
         000058 0018 
     378                                                      ; [] |293| 
     379 00005a 930D          TST.W     r13                   ; [] |293| 
     380 00005c 2002          JNE       $C$L5                 ; [] |293| 
     381                                                      ; [] |293| 
     382            ;* --------------------------------------------------------------------------*
     383 00005e 930C          TST.W     r12                   ; [] |293| 
     384 000060 27FA          JEQ       $C$L4                 ; [] |293| 
     385                                                      ; [] |293| 
     386            ;* --------------------------------------------------------------------------*
     387            ;*   BEGIN LOOP $C$L5
     388            ;*
     389            ;*   Loop source line                : 297
     390            ;*   Loop closing brace source line  : 299
     391            ;*   Known Minimum Trip Count        : 1
     392            ;*   Known Maximum Trip Count        : 4294967295
     393            ;*   Known Max Trip Count Factor     : 1
     394            ;* --------------------------------------------------------------------------*
     395 000062       $C$L5:    
     396                    .dwpsn  file "C:/ti/CC3000 SDK/MSP430FR5739/Basic WiFi Application/Basic WiFi Source/Source/CC
     397            $C$DW$40        .dwtag  DW_TAG_TI_branch
     398                    .dwattr $C$DW$40, DW_AT_low_pc(0x00)
     399                    .dwattr $C$DW$40, DW_AT_TI_call
     400                    .dwattr $C$DW$40, DW_AT_TI_indirect
     401 000062 1380!         CALLA     &tSLInformation+24    ; [] |297| 
         000064 0018 
     402                                                      ; [] |297| 
     403 000066 930D          TST.W     r13                   ; [] |297| 
     404 000068 23FC          JNE       $C$L5                 ; [] |297| 
     405                                                      ; [] |297| 
     406            ;* --------------------------------------------------------------------------*
     407 00006a 930C          TST.W     r12                   ; [] |297| 
     408 00006c 23FA          JNE       $C$L5                 ; [] |297| 
     409                                                      ; [] |297| 
     410            ;* --------------------------------------------------------------------------*
     411 00006e 3C06          JMP       $C$L7                 ; [] |297| 
MSP430 Assembler PC v4.3.1 Wed Oct 01 17:44:05 2014

Tools Copyright (c) 2003-2014 Texas Instruments Incorporated
C:\Users\x0135533\AppData\Local\Temp\0627211                         PAGE    9

     412                                                      ; [] |297| 
     413            ;* --------------------------------------------------------------------------*
     414            ;*   BEGIN LOOP $C$L6
     415            ;*
     416            ;*   Loop source line                : 286
     417            ;*   Loop closing brace source line  : 288
     418            ;*   Known Minimum Trip Count        : 1
     419            ;*   Known Maximum Trip Count        : 4294967295
     420            ;*   Known Max Trip Count Factor     : 1
     421            ;* --------------------------------------------------------------------------*
     422 000070       $C$L6:    
     423                    .dwpsn  file "C:/ti/CC3000 SDK/MSP430FR5739/Basic WiFi Application/Basic WiFi Source/Source/CC
     424            $C$DW$41        .dwtag  DW_TAG_TI_branch
     425                    .dwattr $C$DW$41, DW_AT_low_pc(0x00)
     426                    .dwattr $C$DW$41, DW_AT_TI_call
     427                    .dwattr $C$DW$41, DW_AT_TI_indirect
     428 000070 1380!         CALLA     &tSLInformation+24    ; [] |289| 
         000072 0018 
     429                                                      ; [] |289| 
     430 000074 930D          TST.W     r13                   ; [] |289| 
     431 000076 23FC          JNE       $C$L6                 ; [] |289| 
     432                                                      ; [] |289| 
     433            ;* --------------------------------------------------------------------------*
     434 000078 930C          TST.W     r12                   ; [] |289| 
     435 00007a 23FA          JNE       $C$L6                 ; [] |289| 
     436                                                      ; [] |289| 
     437            ;* --------------------------------------------------------------------------*
     438 00007c       $C$L7:    
     439                    .dwpsn  file "C:/ti/CC3000 SDK/MSP430FR5739/Basic WiFi Application/Basic WiFi Source/Source/CC
     440 00007c 421D          MOV.W     &tSLInformation+6,r13 ; [] |119| 
         00007e 0006!
     441                    .dwpsn  file "C:/ti/CC3000 SDK/MSP430FR5739/Basic WiFi Application/Basic WiFi Source/Source/CC
     442 000080 403F          MOV.W     #9,r15                ; [] |120| 
         000082 0009 
     443 000084 5D0F          ADD.W     r13,r15               ; [] |120| 
     444                    .dwpsn  file "C:/ti/CC3000 SDK/MSP430FR5739/Basic WiFi Application/Basic WiFi Source/Source/CC
     445 000086 930A          TST.W     r10                   ; [] |122| 
     446 000088 2402          JEQ       $C$L8                 ; [] |122| 
     447                                                      ; [] |122| 
     448            ;* --------------------------------------------------------------------------*
     449 00008a 436E          MOV.B     #2,r14                ; [] |122| 
     450 00008c 3C01          JMP       $C$L9                 ; [] |122| 
     451                                                      ; [] |122| 
     452            ;* --------------------------------------------------------------------------*
     453 00008e       $C$L8:    
     454 00008e 434E          MOV.B     #0,r14                ; [] |122| 
     455            ;* --------------------------------------------------------------------------*
     456 000090       $C$L9:    
     457 000090 4ECF          MOV.B     r14,0(r15)            ; [] |122| 
         000092 0000 
     458                    .dwpsn  file "C:/ti/CC3000 SDK/MSP430FR5739/Basic WiFi Application/Basic WiFi Source/Source/CC
     459 000094 403C          MOV.W     #16384,r12            ; [] |125| 
         000096 4000 
     460 000098 435E          MOV.B     #1,r14                ; [] |125| 
     461            $C$DW$42        .dwtag  DW_TAG_TI_branch
MSP430 Assembler PC v4.3.1 Wed Oct 01 17:44:05 2014

Tools Copyright (c) 2003-2014 Texas Instruments Incorporated
C:\Users\x0135533\AppData\Local\Temp\0627211                         PAGE   10

     462                    .dwattr $C$DW$42, DW_AT_low_pc(0x00)
     463                    .dwattr $C$DW$42, DW_AT_name("hci_command_send")
     464                    .dwattr $C$DW$42, DW_AT_TI_call
     465 00009a 13B0!         CALLA     #hci_command_send     ; [] |125| 
         00009c 0000 
     466                                                      ; [] |125| 
     467                    .dwpsn  file "C:/ti/CC3000 SDK/MSP430FR5739/Basic WiFi Application/Basic WiFi Source/Source/CC
     468 00009e 403C          MOV.W     #16384,r12            ; [] |127| 
         0000a0 4000 
     469 0000a2 430D          MOV.W     #0,r13                ; [] |127| 
     470            $C$DW$43        .dwtag  DW_TAG_TI_branch
     471                    .dwattr $C$DW$43, DW_AT_low_pc(0x00)
     472                    .dwattr $C$DW$43, DW_AT_name("SimpleLinkWaitEvent")
     473                    .dwattr $C$DW$43, DW_AT_TI_call
     474 0000a4 13B0!         CALLA     #SimpleLinkWaitEvent  ; [] |127| 
         0000a6 0000 
     475                                                      ; [] |127| 
     476                    .dwpsn  file "C:/ti/CC3000 SDK/MSP430FR5739/Basic WiFi Application/Basic WiFi Source/Source/CC
     477 0000a8 403C          MOV.W     #16395,r12            ; [] |305| 
         0000aa 400B 
     478 0000ac 421D          MOV.W     &tSLInformation+6,r13 ; [] |305| 
         0000ae 0006!
     479 0000b0 434E          MOV.B     #0,r14                ; [] |305| 
     480            $C$DW$44        .dwtag  DW_TAG_TI_branch
     481                    .dwattr $C$DW$44, DW_AT_low_pc(0x00)
     482                    .dwattr $C$DW$44, DW_AT_name("hci_command_send")
     483                    .dwattr $C$DW$44, DW_AT_TI_call
     484 0000b2 13B0!         CALLA     #hci_command_send     ; [] |305| 
         0000b4 0000 
     485                                                      ; [] |305| 
     486                    .dwpsn  file "C:/ti/CC3000 SDK/MSP430FR5739/Basic WiFi Application/Basic WiFi Source/Source/CC
     487 0000b6 403C          MOV.W     #16395,r12            ; [] |306| 
         0000b8 400B 
     488 0000ba 430D          MOV.W     #0,r13                ; [] |306| 
     489            $C$DW$45        .dwtag  DW_TAG_TI_branch
     490                    .dwattr $C$DW$45, DW_AT_low_pc(0x00)
     491                    .dwattr $C$DW$45, DW_AT_name("SimpleLinkWaitEvent")
     492                    .dwattr $C$DW$45, DW_AT_TI_call
     493 0000bc 13B0!         CALLA     #SimpleLinkWaitEvent  ; [] |306| 
         0000be 0000 
     494                                                      ; [] |306| 
     495 0000c0 1628          POPM.A    #3,r10                ; [] 
     496                    .dwcfi  restore_reg, 8
     497                    .dwcfi  restore_reg, 9
     498                    .dwcfi  restore_reg, 10
     499                    .dwcfi  cfa_offset, 4
     500            $C$DW$46        .dwtag  DW_TAG_TI_branch
     501                    .dwattr $C$DW$46, DW_AT_low_pc(0x00)
     502                    .dwattr $C$DW$46, DW_AT_TI_return
     503 0000c2 0110          RETA      ; [] 
     504                    ; [] 
     505                    .dwattr $C$DW$30, DW_AT_TI_end_file("C:/ti/CC3000 SDK/MSP430FR5739/Basic WiFi Application/Basi
     506                    .dwattr $C$DW$30, DW_AT_TI_end_line(0x133)
     507                    .dwattr $C$DW$30, DW_AT_TI_end_column(0x01)
     508                    .dwendentry
MSP430 Assembler PC v4.3.1 Wed Oct 01 17:44:05 2014

Tools Copyright (c) 2003-2014 Texas Instruments Incorporated
C:\Users\x0135533\AppData\Local\Temp\0627211                         PAGE   11

     509                    .dwendtag $C$DW$30
     510            
     511 000000               .sect   ".text:wlan_smart_config_stop"
     512                    .align  2
     513                    .clink
     514                    .global wlan_smart_config_stop
     515            
     516            $C$DW$47        .dwtag  DW_TAG_subprogram, DW_AT_name("wlan_smart_config_stop")
     517                    .dwattr $C$DW$47, DW_AT_low_pc(wlan_smart_config_stop)
     518                    .dwattr $C$DW$47, DW_AT_high_pc(0x00)
     519                    .dwattr $C$DW$47, DW_AT_TI_symbol_name("wlan_smart_config_stop")
     520                    .dwattr $C$DW$47, DW_AT_external
     521                    .dwattr $C$DW$47, DW_AT_type(*$C$DW$T$32)
     522                    .dwattr $C$DW$47, DW_AT_TI_begin_file("C:/ti/CC3000 SDK/MSP430FR5739/Basic WiFi Application/Ba
     523                    .dwattr $C$DW$47, DW_AT_TI_begin_line(0x415)
     524                    .dwattr $C$DW$47, DW_AT_TI_begin_column(0x07)
     525                    .dwattr $C$DW$47, DW_AT_TI_max_frame_size(0x08)
     526                    .dwpsn  file "C:/ti/CC3000 SDK/MSP430FR5739/Basic WiFi Application/Basic WiFi Source/Source/CC
     527            
     528                    .dwfde $C$DW$CIE, wlan_smart_config_stop
     529            
     530            ;*****************************************************************************
     531            ;* FUNCTION NAME: wlan_smart_config_stop                                     *
     532            ;*                                                                           *
     533            ;*   Regs Modified     : SP,SR,r11,r12,r13,r14,r15                           *
     534            ;*   Regs Used         : SP,SR,r11,r12,r13,r14,r15                           *
     535            ;*   Local Frame Size  : 0 Args + 4 Auto + 0 Save = 4 byte                   *
     536            ;*****************************************************************************
     537            wlan_smart_config_stop:
     538            ;* --------------------------------------------------------------------------*
     539            $C$DW$48        .dwtag  DW_TAG_variable, DW_AT_name("ret")
     540                    .dwattr $C$DW$48, DW_AT_TI_symbol_name("ret")
     541                    .dwattr $C$DW$48, DW_AT_type(*$C$DW$T$32)
     542                    .dwattr $C$DW$48, DW_AT_location[DW_OP_breg1 0]
     543            ;* r13   assigned to ptr
     544            $C$DW$49        .dwtag  DW_TAG_variable, DW_AT_name("ptr")
     545                    .dwattr $C$DW$49, DW_AT_TI_symbol_name("ptr")
     546                    .dwattr $C$DW$49, DW_AT_type(*$C$DW$T$21)
     547                    .dwattr $C$DW$49, DW_AT_location[DW_OP_reg13]
     548                    .dwcfi  cfa_offset, 4
     549                    .dwcfi  save_reg_to_mem, 16, -4
     550 000000 8221          SUB.W     #4,SP                 ; [] 
     551                    .dwcfi  cfa_offset, 8
     552                    .dwpsn  file "C:/ti/CC3000 SDK/MSP430FR5739/Basic WiFi Application/Basic WiFi Source/Source/CC
     553 000002 43B1          MOV.W     #-1,0(SP)             ; [] |1050| 
         000004 0000 
     554 000006 43B1          MOV.W     #-1,2(SP)             ; [] |1050| 
         000008 0002 
     555                    .dwpsn  file "C:/ti/CC3000 SDK/MSP430FR5739/Basic WiFi Application/Basic WiFi Source/Source/CC
     556 00000a 421D          MOV.W     &tSLInformation+6,r13 ; [] |1051| 
         00000c 0006!
     557                    .dwpsn  file "C:/ti/CC3000 SDK/MSP430FR5739/Basic WiFi Application/Basic WiFi Source/Source/CC
     558 00000e 403C          MOV.W     #11,r12               ; [] |1053| 
         000010 000B 
     559 000012 434E          MOV.B     #0,r14                ; [] |1053| 
MSP430 Assembler PC v4.3.1 Wed Oct 01 17:44:05 2014

Tools Copyright (c) 2003-2014 Texas Instruments Incorporated
C:\Users\x0135533\AppData\Local\Temp\0627211                         PAGE   12

     560            $C$DW$50        .dwtag  DW_TAG_TI_branch
     561                    .dwattr $C$DW$50, DW_AT_low_pc(0x00)
     562                    .dwattr $C$DW$50, DW_AT_name("hci_command_send")
     563                    .dwattr $C$DW$50, DW_AT_TI_call
     564 000014 13B0!         CALLA     #hci_command_send     ; [] |1053| 
         000016 0000 
     565                                                      ; [] |1053| 
     566                    .dwpsn  file "C:/ti/CC3000 SDK/MSP430FR5739/Basic WiFi Application/Basic WiFi Source/Source/CC
     567 000018 403C          MOV.W     #11,r12               ; [] |1056| 
         00001a 000B 
     568 00001c 01CD          MOVA      SP,r13                ; [] |1056| 
     569            $C$DW$51        .dwtag  DW_TAG_TI_branch
     570                    .dwattr $C$DW$51, DW_AT_low_pc(0x00)
     571                    .dwattr $C$DW$51, DW_AT_name("SimpleLinkWaitEvent")
     572                    .dwattr $C$DW$51, DW_AT_TI_call
     573 00001e 13B0!         CALLA     #SimpleLinkWaitEvent  ; [] |1056| 
         000020 0000 
     574                                                      ; [] |1056| 
     575                    .dwpsn  file "C:/ti/CC3000 SDK/MSP430FR5739/Basic WiFi Application/Basic WiFi Source/Source/CC
     576 000022 412C          MOV.W     0(SP),r12             ; [] |1058| 
     577 000024 411D          MOV.W     2(SP),r13             ; [] |1058| 
         000026 0002 
     578 000028 5221          ADD.W     #4,SP                 ; [] 
     579                    .dwcfi  cfa_offset, 4
     580            $C$DW$52        .dwtag  DW_TAG_TI_branch
     581                    .dwattr $C$DW$52, DW_AT_low_pc(0x00)
     582                    .dwattr $C$DW$52, DW_AT_TI_return
     583 00002a 0110          RETA      ; [] 
     584                    ; [] 
     585                    .dwattr $C$DW$47, DW_AT_TI_end_file("C:/ti/CC3000 SDK/MSP430FR5739/Basic WiFi Application/Basi
     586                    .dwattr $C$DW$47, DW_AT_TI_end_line(0x423)
     587                    .dwattr $C$DW$47, DW_AT_TI_end_column(0x01)
     588                    .dwendentry
     589                    .dwendtag $C$DW$47
     590            
     591 000000               .sect   ".text:wlan_smart_config_start"
     592                    .align  2
     593                    .clink
     594                    .global wlan_smart_config_start
     595            
     596            $C$DW$53        .dwtag  DW_TAG_subprogram, DW_AT_name("wlan_smart_config_start")
     597                    .dwattr $C$DW$53, DW_AT_low_pc(wlan_smart_config_start)
     598                    .dwattr $C$DW$53, DW_AT_high_pc(0x00)
     599                    .dwattr $C$DW$53, DW_AT_TI_symbol_name("wlan_smart_config_start")
     600                    .dwattr $C$DW$53, DW_AT_external
     601                    .dwattr $C$DW$53, DW_AT_type(*$C$DW$T$32)
     602                    .dwattr $C$DW$53, DW_AT_TI_begin_file("C:/ti/CC3000 SDK/MSP430FR5739/Basic WiFi Application/Ba
     603                    .dwattr $C$DW$53, DW_AT_TI_begin_line(0x3f0)
     604                    .dwattr $C$DW$53, DW_AT_TI_begin_column(0x07)
     605                    .dwattr $C$DW$53, DW_AT_TI_max_frame_size(0x0c)
     606                    .dwpsn  file "C:/ti/CC3000 SDK/MSP430FR5739/Basic WiFi Application/Basic WiFi Source/Source/CC
     607            
     608                    .dwfde $C$DW$CIE, wlan_smart_config_start
     609            $C$DW$54        .dwtag  DW_TAG_formal_parameter, DW_AT_name("algoEncryptedFlag")
     610                    .dwattr $C$DW$54, DW_AT_TI_symbol_name("algoEncryptedFlag")
MSP430 Assembler PC v4.3.1 Wed Oct 01 17:44:05 2014

Tools Copyright (c) 2003-2014 Texas Instruments Incorporated
C:\Users\x0135533\AppData\Local\Temp\0627211                         PAGE   13

     611                    .dwattr $C$DW$54, DW_AT_type(*$C$DW$T$25)
     612                    .dwattr $C$DW$54, DW_AT_location[DW_OP_reg12 DW_OP_piece 2 DW_OP_reg13 DW_OP_piece 2]
     613            
     614            ;*****************************************************************************
     615            ;* FUNCTION NAME: wlan_smart_config_start                                    *
     616            ;*                                                                           *
     617            ;*   Regs Modified     : SP,SR,r10,r11,r12,r13,r14,r15                       *
     618            ;*   Regs Used         : SP,SR,r10,r11,r12,r13,r14,r15                       *
     619            ;*   Local Frame Size  : 0 Args + 4 Auto + 4 Save = 8 byte                   *
     620            ;*****************************************************************************
     621            wlan_smart_config_start:
     622            ;* --------------------------------------------------------------------------*
     623            ;* r15   assigned to algoEncryptedFlag
     624            $C$DW$55        .dwtag  DW_TAG_variable, DW_AT_name("algoEncryptedFlag")
     625                    .dwattr $C$DW$55, DW_AT_TI_symbol_name("algoEncryptedFlag")
     626                    .dwattr $C$DW$55, DW_AT_type(*$C$DW$T$120)
     627                    .dwattr $C$DW$55, DW_AT_location[DW_OP_reg15 DW_OP_piece 2 DW_OP_reg14 DW_OP_piece 2]
     628            $C$DW$56        .dwtag  DW_TAG_variable, DW_AT_name("ret")
     629                    .dwattr $C$DW$56, DW_AT_TI_symbol_name("ret")
     630                    .dwattr $C$DW$56, DW_AT_type(*$C$DW$T$32)
     631                    .dwattr $C$DW$56, DW_AT_location[DW_OP_breg1 0]
     632            ;* r10   assigned to ptr
     633            $C$DW$57        .dwtag  DW_TAG_variable, DW_AT_name("ptr")
     634                    .dwattr $C$DW$57, DW_AT_TI_symbol_name("ptr")
     635                    .dwattr $C$DW$57, DW_AT_type(*$C$DW$T$21)
     636                    .dwattr $C$DW$57, DW_AT_location[DW_OP_reg10]
     637                    .dwcfi  cfa_offset, 4
     638                    .dwcfi  save_reg_to_mem, 16, -4
     639 000000 140A          PUSHM.A   #1,r10                ; [] 
     640                    .dwcfi  save_reg_to_mem, 10, -8
     641                    .dwcfi  cfa_offset, 8
     642 000002 8221          SUB.W     #4,SP                 ; [] 
     643                    .dwcfi  cfa_offset, 12
     644 000004 0DCE          MOVA      r13,r14               ; [] |1009| 
     645 000006 0CCD          MOVA      r12,r13               ; [] |1009| 
     646                    .dwpsn  file "C:/ti/CC3000 SDK/MSP430FR5739/Basic WiFi Application/Basic WiFi Source/Source/CC
     647 000008 43B1          MOV.W     #-1,0(SP)             ; [] |1014| 
         00000a 0000 
     648 00000c 43B1          MOV.W     #-1,2(SP)             ; [] |1014| 
         00000e 0002 
     649                    .dwpsn  file "C:/ti/CC3000 SDK/MSP430FR5739/Basic WiFi Application/Basic WiFi Source/Source/CC
     650 000010 421A          MOV.W     &tSLInformation+6,r10 ; [] |1015| 
         000012 0006!
     651                    .dwpsn  file "C:/ti/CC3000 SDK/MSP430FR5739/Basic WiFi Application/Basic WiFi Source/Source/CC
     652 000014 403C          MOV.W     #9,r12                ; [] |1019| 
         000016 0009 
     653 000018 5A0C          ADD.W     r10,r12               ; [] |1019| 
     654            $C$DW$58        .dwtag  DW_TAG_TI_branch
     655                    .dwattr $C$DW$58, DW_AT_low_pc(0x00)
     656                    .dwattr $C$DW$58, DW_AT_name("UINT32_TO_STREAM_f")
     657                    .dwattr $C$DW$58, DW_AT_TI_call
     658 00001a 13B0!         CALLA     #UINT32_TO_STREAM_f   ; [] |1019| 
         00001c 0000 
     659                                                      ; [] |1019| 
     660                    .dwpsn  file "C:/ti/CC3000 SDK/MSP430FR5739/Basic WiFi Application/Basic WiFi Source/Source/CC
MSP430 Assembler PC v4.3.1 Wed Oct 01 17:44:05 2014

Tools Copyright (c) 2003-2014 Texas Instruments Incorporated
C:\Users\x0135533\AppData\Local\Temp\0627211                         PAGE   14

     661 00001e 403C          MOV.W     #10,r12               ; [] |1022| 
         000020 000A 
     662 000022 0ACD          MOVA      r10,r13               ; [] |1022| 
     663 000024 426E          MOV.B     #4,r14                ; [] |1022| 
     664            $C$DW$59        .dwtag  DW_TAG_TI_branch
     665                    .dwattr $C$DW$59, DW_AT_low_pc(0x00)
     666                    .dwattr $C$DW$59, DW_AT_name("hci_command_send")
     667                    .dwattr $C$DW$59, DW_AT_TI_call
     668 000026 13B0!         CALLA     #hci_command_send     ; [] |1022| 
         000028 0000 
     669                                                      ; [] |1022| 
     670                    .dwpsn  file "C:/ti/CC3000 SDK/MSP430FR5739/Basic WiFi Application/Basic WiFi Source/Source/CC
     671 00002a 403C          MOV.W     #10,r12               ; [] |1026| 
         00002c 000A 
     672 00002e 01CD          MOVA      SP,r13                ; [] |1026| 
     673            $C$DW$60        .dwtag  DW_TAG_TI_branch
     674                    .dwattr $C$DW$60, DW_AT_low_pc(0x00)
     675                    .dwattr $C$DW$60, DW_AT_name("SimpleLinkWaitEvent")
     676                    .dwattr $C$DW$60, DW_AT_TI_call
     677 000030 13B0!         CALLA     #SimpleLinkWaitEvent  ; [] |1026| 
         000032 0000 
     678                                                      ; [] |1026| 
     679                    .dwpsn  file "C:/ti/CC3000 SDK/MSP430FR5739/Basic WiFi Application/Basic WiFi Source/Source/CC
     680 000034 412C          MOV.W     0(SP),r12             ; [] |1028| 
     681 000036 411D          MOV.W     2(SP),r13             ; [] |1028| 
         000038 0002 
     682 00003a 5221          ADD.W     #4,SP                 ; [] 
     683                    .dwcfi  cfa_offset, 8
     684 00003c 160A          POPM.A    #1,r10                ; [] 
     685                    .dwcfi  restore_reg, 10
     686                    .dwcfi  cfa_offset, 4
     687            $C$DW$61        .dwtag  DW_TAG_TI_branch
     688                    .dwattr $C$DW$61, DW_AT_low_pc(0x00)
     689                    .dwattr $C$DW$61, DW_AT_TI_return
     690 00003e 0110          RETA      ; [] 
     691                    ; [] 
     692                    .dwattr $C$DW$53, DW_AT_TI_end_file("C:/ti/CC3000 SDK/MSP430FR5739/Basic WiFi Application/Basi
     693                    .dwattr $C$DW$53, DW_AT_TI_end_line(0x405)
     694                    .dwattr $C$DW$53, DW_AT_TI_end_column(0x01)
     695                    .dwendentry
     696                    .dwendtag $C$DW$53
     697            
     698 000000               .sect   ".text:wlan_smart_config_set_prefix"
     699                    .align  2
     700                    .clink
     701                    .global wlan_smart_config_set_prefix
     702            
     703            $C$DW$62        .dwtag  DW_TAG_subprogram, DW_AT_name("wlan_smart_config_set_prefix")
     704                    .dwattr $C$DW$62, DW_AT_low_pc(wlan_smart_config_set_prefix)
     705                    .dwattr $C$DW$62, DW_AT_high_pc(0x00)
     706                    .dwattr $C$DW$62, DW_AT_TI_symbol_name("wlan_smart_config_set_prefix")
     707                    .dwattr $C$DW$62, DW_AT_external
     708                    .dwattr $C$DW$62, DW_AT_type(*$C$DW$T$32)
     709                    .dwattr $C$DW$62, DW_AT_TI_begin_file("C:/ti/CC3000 SDK/MSP430FR5739/Basic WiFi Application/Ba
     710                    .dwattr $C$DW$62, DW_AT_TI_begin_line(0x436)
MSP430 Assembler PC v4.3.1 Wed Oct 01 17:44:05 2014

Tools Copyright (c) 2003-2014 Texas Instruments Incorporated
C:\Users\x0135533\AppData\Local\Temp\0627211                         PAGE   15

     711                    .dwattr $C$DW$62, DW_AT_TI_begin_column(0x07)
     712                    .dwattr $C$DW$62, DW_AT_TI_max_frame_size(0x08)
     713                    .dwpsn  file "C:/ti/CC3000 SDK/MSP430FR5739/Basic WiFi Application/Basic WiFi Source/Source/CC
     714            
     715                    .dwfde $C$DW$CIE, wlan_smart_config_set_prefix
     716            $C$DW$63        .dwtag  DW_TAG_formal_parameter, DW_AT_name("cNewPrefix")
     717                    .dwattr $C$DW$63, DW_AT_TI_symbol_name("cNewPrefix")
     718                    .dwattr $C$DW$63, DW_AT_type(*$C$DW$T$24)
     719                    .dwattr $C$DW$63, DW_AT_location[DW_OP_reg12]
     720            
     721            ;*****************************************************************************
     722            ;* FUNCTION NAME: wlan_smart_config_set_prefix                               *
     723            ;*                                                                           *
     724            ;*   Regs Modified     : SP,SR,r11,r12,r13,r14,r15                           *
     725            ;*   Regs Used         : SP,SR,r11,r12,r13,r14,r15                           *
     726            ;*   Local Frame Size  : 0 Args + 4 Auto + 0 Save = 4 byte                   *
     727            ;*****************************************************************************
     728            wlan_smart_config_set_prefix:
     729            ;* --------------------------------------------------------------------------*
     730            ;* r14   assigned to $O$C11
     731            ;* r14   assigned to $O$C12
     732            ;* r12   assigned to cNewPrefix
     733            $C$DW$64        .dwtag  DW_TAG_variable, DW_AT_name("cNewPrefix")
     734                    .dwattr $C$DW$64, DW_AT_TI_symbol_name("cNewPrefix")
     735                    .dwattr $C$DW$64, DW_AT_type(*$C$DW$T$129)
     736                    .dwattr $C$DW$64, DW_AT_location[DW_OP_reg12]
     737            $C$DW$65        .dwtag  DW_TAG_variable, DW_AT_name("ret")
     738                    .dwattr $C$DW$65, DW_AT_TI_symbol_name("ret")
     739                    .dwattr $C$DW$65, DW_AT_type(*$C$DW$T$32)
     740                    .dwattr $C$DW$65, DW_AT_location[DW_OP_breg1 0]
     741            ;* r13   assigned to ptr
     742            $C$DW$66        .dwtag  DW_TAG_variable, DW_AT_name("ptr")
     743                    .dwattr $C$DW$66, DW_AT_TI_symbol_name("ptr")
     744                    .dwattr $C$DW$66, DW_AT_type(*$C$DW$T$21)
     745                    .dwattr $C$DW$66, DW_AT_location[DW_OP_reg13]
     746            ;* r15   assigned to args
     747            $C$DW$67        .dwtag  DW_TAG_variable, DW_AT_name("args")
     748                    .dwattr $C$DW$67, DW_AT_TI_symbol_name("args")
     749                    .dwattr $C$DW$67, DW_AT_type(*$C$DW$T$21)
     750                    .dwattr $C$DW$67, DW_AT_location[DW_OP_reg15]
     751            ;* r12   assigned to $O$U21
     752                    .dwcfi  cfa_offset, 4
     753                    .dwcfi  save_reg_to_mem, 16, -4
     754 000000 8221          SUB.W     #4,SP                 ; [] 
     755                    .dwcfi  cfa_offset, 8
     756                    .dwpsn  file "C:/ti/CC3000 SDK/MSP430FR5739/Basic WiFi Application/Basic WiFi Source/Source/CC
     757 000002 43B1          MOV.W     #-1,0(SP)             ; [] |1084| 
         000004 0000 
     758 000006 43B1          MOV.W     #-1,2(SP)             ; [] |1084| 
         000008 0002 
     759                    .dwpsn  file "C:/ti/CC3000 SDK/MSP430FR5739/Basic WiFi Application/Basic WiFi Source/Source/CC
     760 00000a 421D          MOV.W     &tSLInformation+6,r13 ; [] |1085| 
         00000c 0006!
     761                    .dwpsn  file "C:/ti/CC3000 SDK/MSP430FR5739/Basic WiFi Application/Basic WiFi Source/Source/CC
     762 00000e 403F          MOV.W     #9,r15                ; [] |1086| 
MSP430 Assembler PC v4.3.1 Wed Oct 01 17:44:05 2014

Tools Copyright (c) 2003-2014 Texas Instruments Incorporated
C:\Users\x0135533\AppData\Local\Temp\0627211                         PAGE   16

         000010 0009 
     763 000012 5D0F          ADD.W     r13,r15               ; [] |1086| 
     764                    .dwpsn  file "C:/ti/CC3000 SDK/MSP430FR5739/Basic WiFi Application/Basic WiFi Source/Source/CC
     765 000014 930C          TST.W     r12                   ; [] |1088| 
     766 000016 2420          JEQ       $C$L10                ; [] |1088| 
     767                                                      ; [] |1088| 
     768            ;* --------------------------------------------------------------------------*
     769                    .dwpsn  file "C:/ti/CC3000 SDK/MSP430FR5739/Basic WiFi Application/Basic WiFi Source/Source/CC
     770 000018 407E          MOV.B     #84,r14               ; [] |1092| 
         00001a 0054 
     771 00001c 4ECC          MOV.B     r14,0(r12)            ; [] |1092| 
         00001e 0000 
     772                    .dwpsn  file "C:/ti/CC3000 SDK/MSP430FR5739/Basic WiFi Application/Basic WiFi Source/Source/CC
     773 000020 4ECC          MOV.B     r14,1(r12)            ; [] |1093| 
         000022 0001 
     774                    .dwpsn  file "C:/ti/CC3000 SDK/MSP430FR5739/Basic WiFi Application/Basic WiFi Source/Source/CC
     775 000024 4ECC          MOV.B     r14,2(r12)            ; [] |1094| 
         000026 0002 
     776                    .dwpsn  file "C:/ti/CC3000 SDK/MSP430FR5739/Basic WiFi Application/Basic WiFi Source/Source/CC
     777 000028 531F          ADD.W     #1,r15                ; [] |1097| 
     778 00002a 4ECF          MOV.B     r14,-1(r15)           ; [] |1097| 
         00002c FFFF 
     779 00002e 531C          ADD.W     #1,r12                ; [] 
     780 000030 531F          ADD.W     #1,r15                ; [] |1097| 
     781 000032 4CFF          MOV.B     @r12+,-1(r15)         ; [] |1097| 
         000034 FFFF 
     782 000036 4CEF          MOV.B     @r12,0(r15)           ; [] |1097| 
         000038 0000 
     783                    .dwpsn  file "C:/ti/CC3000 SDK/MSP430FR5739/Basic WiFi Application/Basic WiFi Source/Source/CC
     784 00003a 403C          MOV.W     #12,r12               ; [] |1099| 
         00003c 000C 
     785 00003e 407E          MOV.B     #3,r14                ; [] |1099| 
         000040 0003 
     786            $C$DW$68        .dwtag  DW_TAG_TI_branch
     787                    .dwattr $C$DW$68, DW_AT_low_pc(0x00)
     788                    .dwattr $C$DW$68, DW_AT_name("hci_command_send")
     789                    .dwattr $C$DW$68, DW_AT_TI_call
     790 000042 13B0!         CALLA     #hci_command_send     ; [] |1099| 
         000044 0000 
     791                                                      ; [] |1099| 
     792                    .dwpsn  file "C:/ti/CC3000 SDK/MSP430FR5739/Basic WiFi Application/Basic WiFi Source/Source/CC
     793 000046 403C          MOV.W     #12,r12               ; [] |1103| 
         000048 000C 
     794 00004a 01CD          MOVA      SP,r13                ; [] |1103| 
     795            $C$DW$69        .dwtag  DW_TAG_TI_branch
     796                    .dwattr $C$DW$69, DW_AT_low_pc(0x00)
     797                    .dwattr $C$DW$69, DW_AT_name("SimpleLinkWaitEvent")
     798                    .dwattr $C$DW$69, DW_AT_TI_call
     799 00004c 13B0!         CALLA     #SimpleLinkWaitEvent  ; [] |1103| 
         00004e 0000 
     800                                                      ; [] |1103| 
     801                    .dwpsn  file "C:/ti/CC3000 SDK/MSP430FR5739/Basic WiFi Application/Basic WiFi Source/Source/CC
     802 000050 412C          MOV.W     0(SP),r12             ; [] |1105| 
     803 000052 411D          MOV.W     2(SP),r13             ; [] |1105| 
         000054 0002 
MSP430 Assembler PC v4.3.1 Wed Oct 01 17:44:05 2014

Tools Copyright (c) 2003-2014 Texas Instruments Incorporated
C:\Users\x0135533\AppData\Local\Temp\0627211                         PAGE   17

     804 000056 3C02          JMP       $C$L11                ; [] |1105| 
     805                                                      ; [] |1105| 
     806            ;* --------------------------------------------------------------------------*
     807 000058       $C$L10:    
     808                    .dwpsn  file "C:/ti/CC3000 SDK/MSP430FR5739/Basic WiFi Application/Basic WiFi Source/Source/CC
     809 000058 433C          MOV.W     #-1,r12               ; [] |1089| 
     810 00005a 433D          MOV.W     #-1,r13               ; [] |1089| 
     811            ;* --------------------------------------------------------------------------*
     812 00005c       $C$L11:    
     813 00005c 5221          ADD.W     #4,SP                 ; [] 
     814                    .dwcfi  cfa_offset, 4
     815            $C$DW$70        .dwtag  DW_TAG_TI_branch
     816                    .dwattr $C$DW$70, DW_AT_low_pc(0x00)
     817                    .dwattr $C$DW$70, DW_AT_TI_return
     818 00005e 0110          RETA      ; [] 
     819                    ; [] 
     820                    .dwattr $C$DW$62, DW_AT_TI_end_file("C:/ti/CC3000 SDK/MSP430FR5739/Basic WiFi Application/Basi
     821                    .dwattr $C$DW$62, DW_AT_TI_end_line(0x452)
     822                    .dwattr $C$DW$62, DW_AT_TI_end_column(0x01)
     823                    .dwendentry
     824                    .dwendtag $C$DW$62
     825            
     826 000000               .sect   ".text:wlan_set_event_mask"
     827                    .align  2
     828                    .clink
     829                    .global wlan_set_event_mask
     830            
     831            $C$DW$71        .dwtag  DW_TAG_subprogram, DW_AT_name("wlan_set_event_mask")
     832                    .dwattr $C$DW$71, DW_AT_low_pc(wlan_set_event_mask)
     833                    .dwattr $C$DW$71, DW_AT_high_pc(0x00)
     834                    .dwattr $C$DW$71, DW_AT_TI_symbol_name("wlan_set_event_mask")
     835                    .dwattr $C$DW$71, DW_AT_external
     836                    .dwattr $C$DW$71, DW_AT_type(*$C$DW$T$32)
     837                    .dwattr $C$DW$71, DW_AT_TI_begin_file("C:/ti/CC3000 SDK/MSP430FR5739/Basic WiFi Application/Ba
     838                    .dwattr $C$DW$71, DW_AT_TI_begin_line(0x390)
     839                    .dwattr $C$DW$71, DW_AT_TI_begin_column(0x07)
     840                    .dwattr $C$DW$71, DW_AT_TI_max_frame_size(0x0c)
     841                    .dwpsn  file "C:/ti/CC3000 SDK/MSP430FR5739/Basic WiFi Application/Basic WiFi Source/Source/CC
     842            
     843                    .dwfde $C$DW$CIE, wlan_set_event_mask
     844            $C$DW$72        .dwtag  DW_TAG_formal_parameter, DW_AT_name("ulMask")
     845                    .dwattr $C$DW$72, DW_AT_TI_symbol_name("ulMask")
     846                    .dwattr $C$DW$72, DW_AT_type(*$C$DW$T$25)
     847                    .dwattr $C$DW$72, DW_AT_location[DW_OP_reg12 DW_OP_piece 2 DW_OP_reg13 DW_OP_piece 2]
     848            
     849            ;*****************************************************************************
     850            ;* FUNCTION NAME: wlan_set_event_mask                                        *
     851            ;*                                                                           *
     852            ;*   Regs Modified     : SP,SR,r10,r11,r12,r13,r14,r15                       *
     853            ;*   Regs Used         : SP,SR,r10,r11,r12,r13,r14,r15                       *
     854            ;*   Local Frame Size  : 0 Args + 4 Auto + 4 Save = 8 byte                   *
     855            ;*****************************************************************************
     856            wlan_set_event_mask:
     857            ;* --------------------------------------------------------------------------*
     858            ;* r10   assigned to ptr
MSP430 Assembler PC v4.3.1 Wed Oct 01 17:44:05 2014

Tools Copyright (c) 2003-2014 Texas Instruments Incorporated
C:\Users\x0135533\AppData\Local\Temp\0627211                         PAGE   18

     859            $C$DW$73        .dwtag  DW_TAG_variable, DW_AT_name("ptr")
     860                    .dwattr $C$DW$73, DW_AT_TI_symbol_name("ptr")
     861                    .dwattr $C$DW$73, DW_AT_type(*$C$DW$T$21)
     862                    .dwattr $C$DW$73, DW_AT_location[DW_OP_reg10]
     863            $C$DW$74        .dwtag  DW_TAG_variable, DW_AT_name("ret")
     864                    .dwattr $C$DW$74, DW_AT_TI_symbol_name("ret")
     865                    .dwattr $C$DW$74, DW_AT_type(*$C$DW$T$32)
     866                    .dwattr $C$DW$74, DW_AT_location[DW_OP_breg1 0]
     867            ;* r15   assigned to ulMask
     868            $C$DW$75        .dwtag  DW_TAG_variable, DW_AT_name("ulMask")
     869                    .dwattr $C$DW$75, DW_AT_TI_symbol_name("ulMask")
     870                    .dwattr $C$DW$75, DW_AT_type(*$C$DW$T$25)
     871                    .dwattr $C$DW$75, DW_AT_location[DW_OP_reg15 DW_OP_piece 2 DW_OP_reg14 DW_OP_piece 2]
     872                    .dwcfi  cfa_offset, 4
     873                    .dwcfi  save_reg_to_mem, 16, -4
     874 000000 140A          PUSHM.A   #1,r10                ; [] 
     875                    .dwcfi  save_reg_to_mem, 10, -8
     876                    .dwcfi  cfa_offset, 8
     877 000002 8221          SUB.W     #4,SP                 ; [] 
     878                    .dwcfi  cfa_offset, 12
     879 000004 0CCF          MOVA      r12,r15               ; [] |913| 
     880 000006 0DCE          MOVA      r13,r14               ; [] |913| 
     881                    .dwpsn  file "C:/ti/CC3000 SDK/MSP430FR5739/Basic WiFi Application/Basic WiFi Source/Source/CC
     882 000008 F03C          AND.W     #32776,r12            ; [] |919| 
         00000a 8008 
     883 00000c F30D          AND.W     #0,r13                ; [] |919| 
     884 00000e 930D          TST.W     r13                   ; [] |919| 
     885 000010 2013          JNE       $C$L13                ; [] |919| 
     886                                                      ; [] |919| 
     887            ;* --------------------------------------------------------------------------*
     888 000012 903C          CMP.W     #32776,r12            ; [] |919| 
         000014 8008 
     889 000016 2010          JNE       $C$L13                ; [] |919| 
     890                                                      ; [] |919| 
     891            ;* --------------------------------------------------------------------------*
     892                    .dwpsn  file "C:/ti/CC3000 SDK/MSP430FR5739/Basic WiFi Application/Basic WiFi Source/Source/CC
     893 000018 43C2          MOV.B     #0,&tSLInformation+60 ; [] |921| 
         00001a 003C!
     894                    .dwpsn  file "C:/ti/CC3000 SDK/MSP430FR5739/Basic WiFi Application/Basic WiFi Source/Source/CC
     895 00001c 930E          TST.W     r14                   ; [] |925| 
     896 00001e 2006          JNE       $C$L12                ; [] |925| 
     897                                                      ; [] |925| 
     898            ;* --------------------------------------------------------------------------*
     899 000020 903F          CMP.W     #32776,r15            ; [] |925| 
         000022 8008 
     900 000024 2003          JNE       $C$L12                ; [] |925| 
     901                                                      ; [] |925| 
     902            ;* --------------------------------------------------------------------------*
     903                    .dwpsn  file "C:/ti/CC3000 SDK/MSP430FR5739/Basic WiFi Application/Basic WiFi Source/Source/CC
     904 000026 430C          MOV.W     #0,r12                ; [] |927| 
     905 000028 430D          MOV.W     #0,r13                ; [] |927| 
     906 00002a 3C20          JMP       $C$L15                ; [] |927| 
     907                                                      ; [] |927| 
     908            ;* --------------------------------------------------------------------------*
     909 00002c       $C$L12:    
MSP430 Assembler PC v4.3.1 Wed Oct 01 17:44:05 2014

Tools Copyright (c) 2003-2014 Texas Instruments Incorporated
C:\Users\x0135533\AppData\Local\Temp\0627211                         PAGE   19

     910                    .dwpsn  file "C:/ti/CC3000 SDK/MSP430FR5739/Basic WiFi Application/Basic WiFi Source/Source/CC
     911 00002c F03F          AND.W     #32759,r15            ; [] |930| 
         00002e 7FF7 
     912 000030 F30E          AND.W     #0,r14                ; [] |930| 
     913 000032 D03F          OR.W      #32768,r15            ; [] |930| 
         000034 8000 
     914                    .dwpsn  file "C:/ti/CC3000 SDK/MSP430FR5739/Basic WiFi Application/Basic WiFi Source/Source/CC
     915 000036 3C02          JMP       $C$L14                ; [] |932| 
     916                                                      ; [] |932| 
     917            ;* --------------------------------------------------------------------------*
     918 000038       $C$L13:    
     919                    .dwpsn  file "C:/ti/CC3000 SDK/MSP430FR5739/Basic WiFi Application/Basic WiFi Source/Source/CC
     920 000038 43D2          MOV.B     #1,&tSLInformation+60 ; [] |935| 
         00003a 003C!
     921            ;* --------------------------------------------------------------------------*
     922 00003c       $C$L14:    
     923                    .dwpsn  file "C:/ti/CC3000 SDK/MSP430FR5739/Basic WiFi Application/Basic WiFi Source/Source/CC
     924 00003c 43B1          MOV.W     #-1,0(SP)             ; [] |938| 
         00003e 0000 
     925 000040 43B1          MOV.W     #-1,2(SP)             ; [] |938| 
         000042 0002 
     926                    .dwpsn  file "C:/ti/CC3000 SDK/MSP430FR5739/Basic WiFi Application/Basic WiFi Source/Source/CC
     927 000044 421A          MOV.W     &tSLInformation+6,r10 ; [] |939| 
         000046 0006!
     928                    .dwpsn  file "C:/ti/CC3000 SDK/MSP430FR5739/Basic WiFi Application/Basic WiFi Source/Source/CC
     929 000048 403C          MOV.W     #9,r12                ; [] |943| 
         00004a 0009 
     930 00004c 5A0C          ADD.W     r10,r12               ; [] |943| 
     931 00004e 0FCD          MOVA      r15,r13               ; [] |943| 
     932            $C$DW$76        .dwtag  DW_TAG_TI_branch
     933                    .dwattr $C$DW$76, DW_AT_low_pc(0x00)
     934                    .dwattr $C$DW$76, DW_AT_name("UINT32_TO_STREAM_f")
     935                    .dwattr $C$DW$76, DW_AT_TI_call
     936 000050 13B0!         CALLA     #UINT32_TO_STREAM_f   ; [] |943| 
         000052 0000 
     937                                                      ; [] |943| 
     938                    .dwpsn  file "C:/ti/CC3000 SDK/MSP430FR5739/Basic WiFi Application/Basic WiFi Source/Source/CC
     939 000054 423C          MOV.W     #8,r12                ; [] |946| 
     940 000056 0ACD          MOVA      r10,r13               ; [] |946| 
     941 000058 426E          MOV.B     #4,r14                ; [] |946| 
     942            $C$DW$77        .dwtag  DW_TAG_TI_branch
     943                    .dwattr $C$DW$77, DW_AT_low_pc(0x00)
     944                    .dwattr $C$DW$77, DW_AT_name("hci_command_send")
     945                    .dwattr $C$DW$77, DW_AT_TI_call
     946 00005a 13B0!         CALLA     #hci_command_send     ; [] |946| 
         00005c 0000 
     947                                                      ; [] |946| 
     948                    .dwpsn  file "C:/ti/CC3000 SDK/MSP430FR5739/Basic WiFi Application/Basic WiFi Source/Source/CC
     949 00005e 423C          MOV.W     #8,r12                ; [] |950| 
     950 000060 01CD          MOVA      SP,r13                ; [] |950| 
     951            $C$DW$78        .dwtag  DW_TAG_TI_branch
     952                    .dwattr $C$DW$78, DW_AT_low_pc(0x00)
     953                    .dwattr $C$DW$78, DW_AT_name("SimpleLinkWaitEvent")
     954                    .dwattr $C$DW$78, DW_AT_TI_call
     955 000062 13B0!         CALLA     #SimpleLinkWaitEvent  ; [] |950| 
MSP430 Assembler PC v4.3.1 Wed Oct 01 17:44:05 2014

Tools Copyright (c) 2003-2014 Texas Instruments Incorporated
C:\Users\x0135533\AppData\Local\Temp\0627211                         PAGE   20

         000064 0000 
     956                                                      ; [] |950| 
     957                    .dwpsn  file "C:/ti/CC3000 SDK/MSP430FR5739/Basic WiFi Application/Basic WiFi Source/Source/CC
     958 000066 412C          MOV.W     0(SP),r12             ; [] |952| 
     959 000068 411D          MOV.W     2(SP),r13             ; [] |952| 
         00006a 0002 
     960            ;* --------------------------------------------------------------------------*
     961 00006c       $C$L15:    
     962 00006c 5221          ADD.W     #4,SP                 ; [] 
     963                    .dwcfi  cfa_offset, 8
     964 00006e 160A          POPM.A    #1,r10                ; [] 
     965                    .dwcfi  restore_reg, 10
     966                    .dwcfi  cfa_offset, 4
     967            $C$DW$79        .dwtag  DW_TAG_TI_branch
     968                    .dwattr $C$DW$79, DW_AT_low_pc(0x00)
     969                    .dwattr $C$DW$79, DW_AT_TI_return
     970 000070 0110          RETA      ; [] 
     971                    ; [] 
     972                    .dwattr $C$DW$71, DW_AT_TI_end_file("C:/ti/CC3000 SDK/MSP430FR5739/Basic WiFi Application/Basi
     973                    .dwattr $C$DW$71, DW_AT_TI_end_line(0x3b9)
     974                    .dwattr $C$DW$71, DW_AT_TI_end_column(0x01)
     975                    .dwendentry
     976                    .dwendtag $C$DW$71
     977            
     978 000000               .sect   ".text:wlan_ioctl_statusget"
     979                    .align  2
     980                    .clink
     981                    .global wlan_ioctl_statusget
     982            
     983            $C$DW$80        .dwtag  DW_TAG_subprogram, DW_AT_name("wlan_ioctl_statusget")
     984                    .dwattr $C$DW$80, DW_AT_low_pc(wlan_ioctl_statusget)
     985                    .dwattr $C$DW$80, DW_AT_high_pc(0x00)
     986                    .dwattr $C$DW$80, DW_AT_TI_symbol_name("wlan_ioctl_statusget")
     987                    .dwattr $C$DW$80, DW_AT_external
     988                    .dwattr $C$DW$80, DW_AT_type(*$C$DW$T$32)
     989                    .dwattr $C$DW$80, DW_AT_TI_begin_file("C:/ti/CC3000 SDK/MSP430FR5739/Basic WiFi Application/Ba
     990                    .dwattr $C$DW$80, DW_AT_TI_begin_line(0x3c9)
     991                    .dwattr $C$DW$80, DW_AT_TI_begin_column(0x07)
     992                    .dwattr $C$DW$80, DW_AT_TI_max_frame_size(0x08)
     993                    .dwpsn  file "C:/ti/CC3000 SDK/MSP430FR5739/Basic WiFi Application/Basic WiFi Source/Source/CC
     994            
     995                    .dwfde $C$DW$CIE, wlan_ioctl_statusget
     996            
     997            ;*****************************************************************************
     998            ;* FUNCTION NAME: wlan_ioctl_statusget                                       *
     999            ;*                                                                           *
    1000            ;*   Regs Modified     : SP,SR,r11,r12,r13,r14,r15                           *
    1001            ;*   Regs Used         : SP,SR,r11,r12,r13,r14,r15                           *
    1002            ;*   Local Frame Size  : 0 Args + 4 Auto + 0 Save = 4 byte                   *
    1003            ;*****************************************************************************
    1004            wlan_ioctl_statusget:
    1005            ;* --------------------------------------------------------------------------*
    1006            $C$DW$81        .dwtag  DW_TAG_variable, DW_AT_name("ret")
    1007                    .dwattr $C$DW$81, DW_AT_TI_symbol_name("ret")
    1008                    .dwattr $C$DW$81, DW_AT_type(*$C$DW$T$32)
MSP430 Assembler PC v4.3.1 Wed Oct 01 17:44:05 2014

Tools Copyright (c) 2003-2014 Texas Instruments Incorporated
C:\Users\x0135533\AppData\Local\Temp\0627211                         PAGE   21

    1009                    .dwattr $C$DW$81, DW_AT_location[DW_OP_breg1 0]
    1010            ;* r13   assigned to ptr
    1011            $C$DW$82        .dwtag  DW_TAG_variable, DW_AT_name("ptr")
    1012                    .dwattr $C$DW$82, DW_AT_TI_symbol_name("ptr")
    1013                    .dwattr $C$DW$82, DW_AT_type(*$C$DW$T$21)
    1014                    .dwattr $C$DW$82, DW_AT_location[DW_OP_reg13]
    1015                    .dwcfi  cfa_offset, 4
    1016                    .dwcfi  save_reg_to_mem, 16, -4
    1017 000000 8221          SUB.W     #4,SP                 ; [] 
    1018                    .dwcfi  cfa_offset, 8
    1019                    .dwpsn  file "C:/ti/CC3000 SDK/MSP430FR5739/Basic WiFi Application/Basic WiFi Source/Source/CC
    1020 000002 43B1          MOV.W     #-1,0(SP)             ; [] |974| 
         000004 0000 
    1021 000006 43B1          MOV.W     #-1,2(SP)             ; [] |974| 
         000008 0002 
    1022                    .dwpsn  file "C:/ti/CC3000 SDK/MSP430FR5739/Basic WiFi Application/Basic WiFi Source/Source/CC
    1023 00000a 421D          MOV.W     &tSLInformation+6,r13 ; [] |975| 
         00000c 0006!
    1024                    .dwpsn  file "C:/ti/CC3000 SDK/MSP430FR5739/Basic WiFi Application/Basic WiFi Source/Source/CC
    1025 00000e 403C          MOV.W     #9,r12                ; [] |977| 
         000010 0009 
    1026 000012 434E          MOV.B     #0,r14                ; [] |977| 
    1027            $C$DW$83        .dwtag  DW_TAG_TI_branch
    1028                    .dwattr $C$DW$83, DW_AT_low_pc(0x00)
    1029                    .dwattr $C$DW$83, DW_AT_name("hci_command_send")
    1030                    .dwattr $C$DW$83, DW_AT_TI_call
    1031 000014 13B0!         CALLA     #hci_command_send     ; [] |977| 
         000016 0000 
    1032                                                      ; [] |977| 
    1033                    .dwpsn  file "C:/ti/CC3000 SDK/MSP430FR5739/Basic WiFi Application/Basic WiFi Source/Source/CC
    1034 000018 403C          MOV.W     #9,r12                ; [] |981| 
         00001a 0009 
    1035 00001c 01CD          MOVA      SP,r13                ; [] |981| 
    1036            $C$DW$84        .dwtag  DW_TAG_TI_branch
    1037                    .dwattr $C$DW$84, DW_AT_low_pc(0x00)
    1038                    .dwattr $C$DW$84, DW_AT_name("SimpleLinkWaitEvent")
    1039                    .dwattr $C$DW$84, DW_AT_TI_call
    1040 00001e 13B0!         CALLA     #SimpleLinkWaitEvent  ; [] |981| 
         000020 0000 
    1041                                                      ; [] |981| 
    1042                    .dwpsn  file "C:/ti/CC3000 SDK/MSP430FR5739/Basic WiFi Application/Basic WiFi Source/Source/CC
    1043 000022 412C          MOV.W     0(SP),r12             ; [] |983| 
    1044 000024 411D          MOV.W     2(SP),r13             ; [] |983| 
         000026 0002 
    1045 000028 5221          ADD.W     #4,SP                 ; [] 
    1046                    .dwcfi  cfa_offset, 4
    1047            $C$DW$85        .dwtag  DW_TAG_TI_branch
    1048                    .dwattr $C$DW$85, DW_AT_low_pc(0x00)
    1049                    .dwattr $C$DW$85, DW_AT_TI_return
    1050 00002a 0110          RETA      ; [] 
    1051                    ; [] 
    1052                    .dwattr $C$DW$80, DW_AT_TI_end_file("C:/ti/CC3000 SDK/MSP430FR5739/Basic WiFi Application/Basi
    1053                    .dwattr $C$DW$80, DW_AT_TI_end_line(0x3d8)
    1054                    .dwattr $C$DW$80, DW_AT_TI_end_column(0x01)
    1055                    .dwendentry
MSP430 Assembler PC v4.3.1 Wed Oct 01 17:44:05 2014

Tools Copyright (c) 2003-2014 Texas Instruments Incorporated
C:\Users\x0135533\AppData\Local\Temp\0627211                         PAGE   22

    1056                    .dwendtag $C$DW$80
    1057            
    1058 000000               .sect   ".text:wlan_ioctl_set_scan_params"
    1059                    .align  2
    1060                    .clink
    1061                    .global wlan_ioctl_set_scan_params
    1062            
    1063            $C$DW$86        .dwtag  DW_TAG_subprogram, DW_AT_name("wlan_ioctl_set_scan_params")
    1064                    .dwattr $C$DW$86, DW_AT_low_pc(wlan_ioctl_set_scan_params)
    1065                    .dwattr $C$DW$86, DW_AT_high_pc(0x00)
    1066                    .dwattr $C$DW$86, DW_AT_TI_symbol_name("wlan_ioctl_set_scan_params")
    1067                    .dwattr $C$DW$86, DW_AT_external
    1068                    .dwattr $C$DW$86, DW_AT_type(*$C$DW$T$32)
    1069                    .dwattr $C$DW$86, DW_AT_TI_begin_file("C:/ti/CC3000 SDK/MSP430FR5739/Basic WiFi Application/Ba
    1070                    .dwattr $C$DW$86, DW_AT_TI_begin_line(0x353)
    1071                    .dwattr $C$DW$86, DW_AT_TI_begin_column(0x07)
    1072                    .dwattr $C$DW$86, DW_AT_TI_max_frame_size(0x3a)
    1073                    .dwpsn  file "C:/ti/CC3000 SDK/MSP430FR5739/Basic WiFi Application/Basic WiFi Source/Source/CC
    1074            
    1075                    .dwfde $C$DW$CIE, wlan_ioctl_set_scan_params
    1076            $C$DW$87        .dwtag  DW_TAG_formal_parameter, DW_AT_name("uiEnable")
    1077                    .dwattr $C$DW$87, DW_AT_TI_symbol_name("uiEnable")
    1078                    .dwattr $C$DW$87, DW_AT_type(*$C$DW$T$25)
    1079                    .dwattr $C$DW$87, DW_AT_location[DW_OP_reg12 DW_OP_piece 2 DW_OP_reg13 DW_OP_piece 2]
    1080            $C$DW$88        .dwtag  DW_TAG_formal_parameter, DW_AT_name("uiMinDwellTime")
    1081                    .dwattr $C$DW$88, DW_AT_TI_symbol_name("uiMinDwellTime")
    1082                    .dwattr $C$DW$88, DW_AT_type(*$C$DW$T$25)
    1083                    .dwattr $C$DW$88, DW_AT_location[DW_OP_reg14 DW_OP_piece 2 DW_OP_reg15 DW_OP_piece 2]
    1084            $C$DW$89        .dwtag  DW_TAG_formal_parameter, DW_AT_name("uiMaxDwellTime")
    1085                    .dwattr $C$DW$89, DW_AT_TI_symbol_name("uiMaxDwellTime")
    1086                    .dwattr $C$DW$89, DW_AT_type(*$C$DW$T$25)
    1087                    .dwattr $C$DW$89, DW_AT_location[DW_OP_breg1 58]
    1088            $C$DW$90        .dwtag  DW_TAG_formal_parameter, DW_AT_name("uiNumOfProbeRequests")
    1089                    .dwattr $C$DW$90, DW_AT_TI_symbol_name("uiNumOfProbeRequests")
    1090                    .dwattr $C$DW$90, DW_AT_type(*$C$DW$T$25)
    1091                    .dwattr $C$DW$90, DW_AT_location[DW_OP_breg1 62]
    1092            $C$DW$91        .dwtag  DW_TAG_formal_parameter, DW_AT_name("uiChannelMask")
    1093                    .dwattr $C$DW$91, DW_AT_TI_symbol_name("uiChannelMask")
    1094                    .dwattr $C$DW$91, DW_AT_type(*$C$DW$T$25)
    1095                    .dwattr $C$DW$91, DW_AT_location[DW_OP_breg1 66]
    1096            $C$DW$92        .dwtag  DW_TAG_formal_parameter, DW_AT_name("iRSSIThreshold")
    1097                    .dwattr $C$DW$92, DW_AT_TI_symbol_name("iRSSIThreshold")
    1098                    .dwattr $C$DW$92, DW_AT_type(*$C$DW$T$32)
    1099                    .dwattr $C$DW$92, DW_AT_location[DW_OP_breg1 70]
    1100            $C$DW$93        .dwtag  DW_TAG_formal_parameter, DW_AT_name("uiSNRThreshold")
    1101                    .dwattr $C$DW$93, DW_AT_TI_symbol_name("uiSNRThreshold")
    1102                    .dwattr $C$DW$93, DW_AT_type(*$C$DW$T$25)
    1103                    .dwattr $C$DW$93, DW_AT_location[DW_OP_breg1 74]
    1104            $C$DW$94        .dwtag  DW_TAG_formal_parameter, DW_AT_name("uiDefaultTxPower")
    1105                    .dwattr $C$DW$94, DW_AT_TI_symbol_name("uiDefaultTxPower")
    1106                    .dwattr $C$DW$94, DW_AT_type(*$C$DW$T$25)
    1107                    .dwattr $C$DW$94, DW_AT_location[DW_OP_breg1 78]
    1108            $C$DW$95        .dwtag  DW_TAG_formal_parameter, DW_AT_name("aiIntervalList")
    1109                    .dwattr $C$DW$95, DW_AT_TI_symbol_name("aiIntervalList")
    1110                    .dwattr $C$DW$95, DW_AT_type(*$C$DW$T$26)
MSP430 Assembler PC v4.3.1 Wed Oct 01 17:44:05 2014

Tools Copyright (c) 2003-2014 Texas Instruments Incorporated
C:\Users\x0135533\AppData\Local\Temp\0627211                         PAGE   23

    1111                    .dwattr $C$DW$95, DW_AT_location[DW_OP_breg1 82]
    1112            
    1113            ;*****************************************************************************
    1114            ;* FUNCTION NAME: wlan_ioctl_set_scan_params                                 *
    1115            ;*                                                                           *
    1116            ;*   Regs Modified     : SP,SR,r4,r5,r6,r7,r8,r9,r10,r11,r12,r13,r14,r15     *
    1117            ;*   Regs Used         : SP,SR,r4,r5,r6,r7,r8,r9,r10,r11,r12,r13,r14,r15     *
    1118            ;*   Local Frame Size  : 0 Args + 26 Auto + 28 Save = 54 byte                *
    1119            ;*****************************************************************************
    1120            wlan_ioctl_set_scan_params:
    1121            ;* --------------------------------------------------------------------------*
    1122            $C$DW$96        .dwtag  DW_TAG_variable, DW_AT_name("uiEnable")
    1123                    .dwattr $C$DW$96, DW_AT_TI_symbol_name("uiEnable")
    1124                    .dwattr $C$DW$96, DW_AT_type(*$C$DW$T$120)
    1125                    .dwattr $C$DW$96, DW_AT_location[DW_OP_breg1 4]
    1126            $C$DW$97        .dwtag  DW_TAG_variable, DW_AT_name("uiMinDwellTime")
    1127                    .dwattr $C$DW$97, DW_AT_TI_symbol_name("uiMinDwellTime")
    1128                    .dwattr $C$DW$97, DW_AT_type(*$C$DW$T$120)
    1129                    .dwattr $C$DW$97, DW_AT_location[DW_OP_breg1 8]
    1130            $C$DW$98        .dwtag  DW_TAG_variable, DW_AT_name("uiMaxDwellTime")
    1131                    .dwattr $C$DW$98, DW_AT_TI_symbol_name("uiMaxDwellTime")
    1132                    .dwattr $C$DW$98, DW_AT_type(*$C$DW$T$120)
    1133                    .dwattr $C$DW$98, DW_AT_location[DW_OP_breg1 12]
    1134            $C$DW$99        .dwtag  DW_TAG_variable, DW_AT_name("uiNumOfProbeRequests")
    1135                    .dwattr $C$DW$99, DW_AT_TI_symbol_name("uiNumOfProbeRequests")
    1136                    .dwattr $C$DW$99, DW_AT_type(*$C$DW$T$120)
    1137                    .dwattr $C$DW$99, DW_AT_location[DW_OP_breg1 16]
    1138            $C$DW$100       .dwtag  DW_TAG_variable, DW_AT_name("uiChannelMask")
    1139                    .dwattr $C$DW$100, DW_AT_TI_symbol_name("uiChannelMask")
    1140                    .dwattr $C$DW$100, DW_AT_type(*$C$DW$T$120)
    1141                    .dwattr $C$DW$100, DW_AT_location[DW_OP_breg1 20]
    1142            ;* r8    assigned to iRSSIThreshold
    1143            $C$DW$101       .dwtag  DW_TAG_variable, DW_AT_name("iRSSIThreshold")
    1144                    .dwattr $C$DW$101, DW_AT_TI_symbol_name("iRSSIThreshold")
    1145                    .dwattr $C$DW$101, DW_AT_type(*$C$DW$T$97)
    1146                    .dwattr $C$DW$101, DW_AT_location[DW_OP_reg8 DW_OP_piece 2 DW_OP_reg9 DW_OP_piece 2]
    1147            $C$DW$102       .dwtag  DW_TAG_variable, DW_AT_name("uiSNRThreshold")
    1148                    .dwattr $C$DW$102, DW_AT_TI_symbol_name("uiSNRThreshold")
    1149                    .dwattr $C$DW$102, DW_AT_type(*$C$DW$T$120)
    1150                    .dwattr $C$DW$102, DW_AT_location[DW_OP_breg1 24]
    1151            ;* r5    assigned to uiDefaultTxPower
    1152            $C$DW$103       .dwtag  DW_TAG_variable, DW_AT_name("uiDefaultTxPower")
    1153                    .dwattr $C$DW$103, DW_AT_TI_symbol_name("uiDefaultTxPower")
    1154                    .dwattr $C$DW$103, DW_AT_type(*$C$DW$T$120)
    1155                    .dwattr $C$DW$103, DW_AT_location[DW_OP_reg5 DW_OP_piece 2 DW_OP_reg6 DW_OP_piece 2]
    1156            ;* r10   assigned to aiIntervalList
    1157            $C$DW$104       .dwtag  DW_TAG_variable, DW_AT_name("aiIntervalList")
    1158                    .dwattr $C$DW$104, DW_AT_TI_symbol_name("aiIntervalList")
    1159                    .dwattr $C$DW$104, DW_AT_type(*$C$DW$T$121)
    1160                    .dwattr $C$DW$104, DW_AT_location[DW_OP_reg10]
    1161            $C$DW$105       .dwtag  DW_TAG_variable, DW_AT_name("uiRes")
    1162                    .dwattr $C$DW$105, DW_AT_TI_symbol_name("uiRes")
    1163                    .dwattr $C$DW$105, DW_AT_type(*$C$DW$T$25)
    1164                    .dwattr $C$DW$105, DW_AT_location[DW_OP_breg1 0]
    1165            ;* r7    assigned to ptr
MSP430 Assembler PC v4.3.1 Wed Oct 01 17:44:05 2014

Tools Copyright (c) 2003-2014 Texas Instruments Incorporated
C:\Users\x0135533\AppData\Local\Temp\0627211                         PAGE   24

    1166            $C$DW$106       .dwtag  DW_TAG_variable, DW_AT_name("ptr")
    1167                    .dwattr $C$DW$106, DW_AT_TI_symbol_name("ptr")
    1168                    .dwattr $C$DW$106, DW_AT_type(*$C$DW$T$21)
    1169                    .dwattr $C$DW$106, DW_AT_location[DW_OP_reg7]
    1170            ;* r12   assigned to args
    1171            $C$DW$107       .dwtag  DW_TAG_variable, DW_AT_name("args")
    1172                    .dwattr $C$DW$107, DW_AT_TI_symbol_name("args")
    1173                    .dwattr $C$DW$107, DW_AT_type(*$C$DW$T$21)
    1174                    .dwattr $C$DW$107, DW_AT_location[DW_OP_reg12]
    1175            ;* r15   assigned to $O$L1
    1176            ;* r10   assigned to $O$U18
    1177                    .dwcfi  cfa_offset, 4
    1178                    .dwcfi  save_reg_to_mem, 16, -4
    1179 000000 146A          PUSHM.A   #7,r10                ; [] 
    1180                    .dwcfi  save_reg_to_mem, 10, -8
    1181                    .dwcfi  save_reg_to_mem, 9, -12
    1182                    .dwcfi  save_reg_to_mem, 8, -16
    1183                    .dwcfi  save_reg_to_mem, 7, -20
    1184                    .dwcfi  save_reg_to_mem, 6, -24
    1185                    .dwcfi  save_reg_to_mem, 5, -28
    1186                    .dwcfi  save_reg_to_mem, 4, -32
    1187                    .dwcfi  cfa_offset, 32
    1188 000002 8031          SUB.W     #26,SP                ; [] 
         000004 001A 
    1189                    .dwcfi  cfa_offset, 58
    1190 000006 4E81          MOV.W     r14,8(SP)             ; [] 
         000008 0008 
    1191 00000a 4F81          MOV.W     r15,10(SP)            ; [] 
         00000c 000A 
    1192 00000e 4C81          MOV.W     r12,4(SP)             ; [] 
         000010 0004 
    1193 000012 4D81          MOV.W     r13,6(SP)             ; [] 
         000014 0006 
    1194 000016 411A          MOV.W     82(SP),r10            ; [] |858| 
         000018 0052 
    1195 00001a 4115          MOV.W     78(SP),r5             ; [] |858| 
         00001c 004E 
    1196 00001e 4116          MOV.W     80(SP),r6             ; [] |858| 
         000020 0050 
    1197 000022 4191          MOV.W     74(SP),24(SP)         ; [] |858| 
         000024 004A 
         000026 0018 
    1198 000028 4114          MOV.W     76(SP),r4             ; [] |858| 
         00002a 004C 
    1199 00002c 4118          MOV.W     70(SP),r8             ; [] |858| 
         00002e 0046 
    1200 000030 4119          MOV.W     72(SP),r9             ; [] |858| 
         000032 0048 
    1201 000034 4191          MOV.W     66(SP),20(SP)         ; [] |858| 
         000036 0042 
         000038 0014 
    1202 00003a 4191          MOV.W     68(SP),22(SP)         ; [] |858| 
         00003c 0044 
         00003e 0016 
    1203 000040 4191          MOV.W     62(SP),16(SP)         ; [] |858| 
MSP430 Assembler PC v4.3.1 Wed Oct 01 17:44:05 2014

Tools Copyright (c) 2003-2014 Texas Instruments Incorporated
C:\Users\x0135533\AppData\Local\Temp\0627211                         PAGE   25

         000042 003E 
         000044 0010 
    1204 000046 4191          MOV.W     64(SP),18(SP)         ; [] |858| 
         000048 0040 
         00004a 0012 
    1205 00004c 4191          MOV.W     58(SP),12(SP)         ; [] |858| 
         00004e 003A 
         000050 000C 
    1206 000052 4191          MOV.W     60(SP),14(SP)         ; [] |858| 
         000054 003C 
         000056 000E 
    1207                    .dwpsn  file "C:/ti/CC3000 SDK/MSP430FR5739/Basic WiFi Application/Basic WiFi Source/Source/CC
    1208 000058 4217          MOV.W     &tSLInformation+6,r7  ; [] |863| 
         00005a 0006!
    1209                    .dwpsn  file "C:/ti/CC3000 SDK/MSP430FR5739/Basic WiFi Application/Basic WiFi Source/Source/CC
    1210 00005c 403C          MOV.W     #9,r12                ; [] |867| 
         00005e 0009 
    1211 000060 570C          ADD.W     r7,r12                ; [] |867| 
    1212 000062 403D          MOV.W     #36,r13               ; [] |867| 
         000064 0024 
    1213 000066 430E          MOV.W     #0,r14                ; [] |867| 
    1214            $C$DW$108       .dwtag  DW_TAG_TI_branch
    1215                    .dwattr $C$DW$108, DW_AT_low_pc(0x00)
    1216                    .dwattr $C$DW$108, DW_AT_name("UINT32_TO_STREAM_f")
    1217                    .dwattr $C$DW$108, DW_AT_TI_call
    1218 000068 13B0!         CALLA     #UINT32_TO_STREAM_f   ; [] |867| 
         00006a 0000 
    1219                                                      ; [] |867| 
    1220 00006c 411D          MOV.W     4(SP),r13             ; [] 
         00006e 0004 
    1221 000070 411E          MOV.W     6(SP),r14             ; [] 
         000072 0006 
    1222                    .dwpsn  file "C:/ti/CC3000 SDK/MSP430FR5739/Basic WiFi Application/Basic WiFi Source/Source/CC
    1223            $C$DW$109       .dwtag  DW_TAG_TI_branch
    1224                    .dwattr $C$DW$109, DW_AT_low_pc(0x00)
    1225                    .dwattr $C$DW$109, DW_AT_name("UINT32_TO_STREAM_f")
    1226                    .dwattr $C$DW$109, DW_AT_TI_call
    1227 000074 13B0!         CALLA     #UINT32_TO_STREAM_f   ; [] |868| 
         000076 0000 
    1228                                                      ; [] |868| 
    1229 000078 411D          MOV.W     8(SP),r13             ; [] 
         00007a 0008 
    1230 00007c 411E          MOV.W     10(SP),r14            ; [] 
         00007e 000A 
    1231                    .dwpsn  file "C:/ti/CC3000 SDK/MSP430FR5739/Basic WiFi Application/Basic WiFi Source/Source/CC
    1232            $C$DW$110       .dwtag  DW_TAG_TI_branch
    1233                    .dwattr $C$DW$110, DW_AT_low_pc(0x00)
    1234                    .dwattr $C$DW$110, DW_AT_name("UINT32_TO_STREAM_f")
    1235                    .dwattr $C$DW$110, DW_AT_TI_call
    1236 000080 13B0!         CALLA     #UINT32_TO_STREAM_f   ; [] |869| 
         000082 0000 
    1237                                                      ; [] |869| 
    1238 000084 411D          MOV.W     12(SP),r13            ; [] 
         000086 000C 
    1239 000088 411E          MOV.W     14(SP),r14            ; [] 
MSP430 Assembler PC v4.3.1 Wed Oct 01 17:44:05 2014

Tools Copyright (c) 2003-2014 Texas Instruments Incorporated
C:\Users\x0135533\AppData\Local\Temp\0627211                         PAGE   26

         00008a 000E 
    1240                    .dwpsn  file "C:/ti/CC3000 SDK/MSP430FR5739/Basic WiFi Application/Basic WiFi Source/Source/CC
    1241            $C$DW$111       .dwtag  DW_TAG_TI_branch
    1242                    .dwattr $C$DW$111, DW_AT_low_pc(0x00)
    1243                    .dwattr $C$DW$111, DW_AT_name("UINT32_TO_STREAM_f")
    1244                    .dwattr $C$DW$111, DW_AT_TI_call
    1245 00008c 13B0!         CALLA     #UINT32_TO_STREAM_f   ; [] |870| 
         00008e 0000 
    1246                                                      ; [] |870| 
    1247 000090 411D          MOV.W     16(SP),r13            ; [] 
         000092 0010 
    1248 000094 411E          MOV.W     18(SP),r14            ; [] 
         000096 0012 
    1249                    .dwpsn  file "C:/ti/CC3000 SDK/MSP430FR5739/Basic WiFi Application/Basic WiFi Source/Source/CC
    1250            $C$DW$112       .dwtag  DW_TAG_TI_branch
    1251                    .dwattr $C$DW$112, DW_AT_low_pc(0x00)
    1252                    .dwattr $C$DW$112, DW_AT_name("UINT32_TO_STREAM_f")
    1253                    .dwattr $C$DW$112, DW_AT_TI_call
    1254 000098 13B0!         CALLA     #UINT32_TO_STREAM_f   ; [] |871| 
         00009a 0000 
    1255                                                      ; [] |871| 
    1256 00009c 411D          MOV.W     20(SP),r13            ; [] 
         00009e 0014 
    1257 0000a0 411E          MOV.W     22(SP),r14            ; [] 
         0000a2 0016 
    1258                    .dwpsn  file "C:/ti/CC3000 SDK/MSP430FR5739/Basic WiFi Application/Basic WiFi Source/Source/CC
    1259            $C$DW$113       .dwtag  DW_TAG_TI_branch
    1260                    .dwattr $C$DW$113, DW_AT_low_pc(0x00)
    1261                    .dwattr $C$DW$113, DW_AT_name("UINT32_TO_STREAM_f")
    1262                    .dwattr $C$DW$113, DW_AT_TI_call
    1263 0000a4 13B0!         CALLA     #UINT32_TO_STREAM_f   ; [] |872| 
         0000a6 0000 
    1264                                                      ; [] |872| 
    1265                    .dwpsn  file "C:/ti/CC3000 SDK/MSP430FR5739/Basic WiFi Application/Basic WiFi Source/Source/CC
    1266 0000a8 08CD          MOVA      r8,r13                ; [] |873| 
    1267 0000aa 09CE          MOVA      r9,r14                ; [] |873| 
    1268            $C$DW$114       .dwtag  DW_TAG_TI_branch
    1269                    .dwattr $C$DW$114, DW_AT_low_pc(0x00)
    1270                    .dwattr $C$DW$114, DW_AT_name("UINT32_TO_STREAM_f")
    1271                    .dwattr $C$DW$114, DW_AT_TI_call
    1272 0000ac 13B0!         CALLA     #UINT32_TO_STREAM_f   ; [] |873| 
         0000ae 0000 
    1273                                                      ; [] |873| 
    1274 0000b0 411D          MOV.W     24(SP),r13            ; [] 
         0000b2 0018 
    1275                    .dwpsn  file "C:/ti/CC3000 SDK/MSP430FR5739/Basic WiFi Application/Basic WiFi Source/Source/CC
    1276 0000b4 04CE          MOVA      r4,r14                ; [] |874| 
    1277            $C$DW$115       .dwtag  DW_TAG_TI_branch
    1278                    .dwattr $C$DW$115, DW_AT_low_pc(0x00)
    1279                    .dwattr $C$DW$115, DW_AT_name("UINT32_TO_STREAM_f")
    1280                    .dwattr $C$DW$115, DW_AT_TI_call
    1281 0000b6 13B0!         CALLA     #UINT32_TO_STREAM_f   ; [] |874| 
         0000b8 0000 
    1282                                                      ; [] |874| 
    1283                    .dwpsn  file "C:/ti/CC3000 SDK/MSP430FR5739/Basic WiFi Application/Basic WiFi Source/Source/CC
MSP430 Assembler PC v4.3.1 Wed Oct 01 17:44:05 2014

Tools Copyright (c) 2003-2014 Texas Instruments Incorporated
C:\Users\x0135533\AppData\Local\Temp\0627211                         PAGE   27

    1284 0000ba 05CD          MOVA      r5,r13                ; [] |875| 
    1285 0000bc 06CE          MOVA      r6,r14                ; [] |875| 
    1286            $C$DW$116       .dwtag  DW_TAG_TI_branch
    1287                    .dwattr $C$DW$116, DW_AT_low_pc(0x00)
    1288                    .dwattr $C$DW$116, DW_AT_name("UINT32_TO_STREAM_f")
    1289                    .dwattr $C$DW$116, DW_AT_TI_call
    1290 0000be 13B0!         CALLA     #UINT32_TO_STREAM_f   ; [] |875| 
         0000c0 0000 
    1291                                                      ; [] |875| 
    1292                    .dwpsn  file "C:/ti/CC3000 SDK/MSP430FR5739/Basic WiFi Application/Basic WiFi Source/Source/CC
    1293 0000c2 403F          MOV.W     #64,r15               ; [] |876| 
         0000c4 0040 
    1294            ;* --------------------------------------------------------------------------*
    1295            ;*   BEGIN LOOP $C$L16
    1296            ;*
    1297            ;*   Loop source line                : 876
    1298            ;*   Loop closing brace source line  : 876
    1299            ;*   Known Minimum Trip Count        : 64
    1300            ;*   Known Maximum Trip Count        : 64
    1301            ;*   Known Max Trip Count Factor     : 64
    1302            ;* --------------------------------------------------------------------------*
    1303 0000c6       $C$L16:    
    1304 0000c6 531C          ADD.W     #1,r12                ; [] |876| 
    1305 0000c8 4AFC          MOV.B     @r10+,-1(r12)         ; [] |876| 
         0000ca FFFF 
    1306 0000cc 831F          SUB.W     #1,r15                ; [] |876| 
    1307 0000ce 23FB          JNE       $C$L16                ; [] |876| 
    1308                                                      ; [] |876| 
    1309            ;* --------------------------------------------------------------------------*
    1310                    .dwpsn  file "C:/ti/CC3000 SDK/MSP430FR5739/Basic WiFi Application/Basic WiFi Source/Source/CC
    1311 0000d0 403C          MOV.W     #3,r12                ; [] |880| 
         0000d2 0003 
    1312 0000d4 07CD          MOVA      r7,r13                ; [] |880| 
    1313 0000d6 407E          MOV.B     #100,r14              ; [] |880| 
         0000d8 0064 
    1314            $C$DW$117       .dwtag  DW_TAG_TI_branch
    1315                    .dwattr $C$DW$117, DW_AT_low_pc(0x00)
    1316                    .dwattr $C$DW$117, DW_AT_name("hci_command_send")
    1317                    .dwattr $C$DW$117, DW_AT_TI_call
    1318 0000da 13B0!         CALLA     #hci_command_send     ; [] |880| 
         0000dc 0000 
    1319                                                      ; [] |880| 
    1320                    .dwpsn  file "C:/ti/CC3000 SDK/MSP430FR5739/Basic WiFi Application/Basic WiFi Source/Source/CC
    1321 0000de 403C          MOV.W     #3,r12                ; [] |884| 
         0000e0 0003 
    1322 0000e2 01CD          MOVA      SP,r13                ; [] |884| 
    1323            $C$DW$118       .dwtag  DW_TAG_TI_branch
    1324                    .dwattr $C$DW$118, DW_AT_low_pc(0x00)
    1325                    .dwattr $C$DW$118, DW_AT_name("SimpleLinkWaitEvent")
    1326                    .dwattr $C$DW$118, DW_AT_TI_call
    1327 0000e4 13B0!         CALLA     #SimpleLinkWaitEvent  ; [] |884| 
         0000e6 0000 
    1328                                                      ; [] |884| 
    1329                    .dwpsn  file "C:/ti/CC3000 SDK/MSP430FR5739/Basic WiFi Application/Basic WiFi Source/Source/CC
    1330 0000e8 412C          MOV.W     0(SP),r12             ; [] |886| 
MSP430 Assembler PC v4.3.1 Wed Oct 01 17:44:05 2014

Tools Copyright (c) 2003-2014 Texas Instruments Incorporated
C:\Users\x0135533\AppData\Local\Temp\0627211                         PAGE   28

    1331 0000ea 411D          MOV.W     2(SP),r13             ; [] |886| 
         0000ec 0002 
    1332 0000ee 5031          ADD.W     #26,SP                ; [] 
         0000f0 001A 
    1333                    .dwcfi  cfa_offset, 32
    1334 0000f2 1664          POPM.A    #7,r10                ; [] 
    1335                    .dwcfi  restore_reg, 4
    1336                    .dwcfi  restore_reg, 5
    1337                    .dwcfi  restore_reg, 6
    1338                    .dwcfi  restore_reg, 7
    1339                    .dwcfi  restore_reg, 8
    1340                    .dwcfi  restore_reg, 9
    1341                    .dwcfi  restore_reg, 10
    1342                    .dwcfi  cfa_offset, 4
    1343            $C$DW$119       .dwtag  DW_TAG_TI_branch
    1344                    .dwattr $C$DW$119, DW_AT_low_pc(0x00)
    1345                    .dwattr $C$DW$119, DW_AT_TI_return
    1346 0000f4 0110          RETA      ; [] 
    1347                    ; [] 
    1348                    .dwattr $C$DW$86, DW_AT_TI_end_file("C:/ti/CC3000 SDK/MSP430FR5739/Basic WiFi Application/Basi
    1349                    .dwattr $C$DW$86, DW_AT_TI_end_line(0x377)
    1350                    .dwattr $C$DW$86, DW_AT_TI_end_column(0x01)
    1351                    .dwendentry
    1352                    .dwendtag $C$DW$86
    1353            
    1354 000000               .sect   ".text:wlan_ioctl_set_connection_policy"
    1355                    .align  2
    1356                    .clink
    1357                    .global wlan_ioctl_set_connection_policy
    1358            
    1359            $C$DW$120       .dwtag  DW_TAG_subprogram, DW_AT_name("wlan_ioctl_set_connection_policy")
    1360                    .dwattr $C$DW$120, DW_AT_low_pc(wlan_ioctl_set_connection_policy)
    1361                    .dwattr $C$DW$120, DW_AT_high_pc(0x00)
    1362                    .dwattr $C$DW$120, DW_AT_TI_symbol_name("wlan_ioctl_set_connection_policy")
    1363                    .dwattr $C$DW$120, DW_AT_external
    1364                    .dwattr $C$DW$120, DW_AT_type(*$C$DW$T$32)
    1365                    .dwattr $C$DW$120, DW_AT_TI_begin_file("C:/ti/CC3000 SDK/MSP430FR5739/Basic WiFi Application/B
    1366                    .dwattr $C$DW$120, DW_AT_TI_begin_line(0x208)
    1367                    .dwattr $C$DW$120, DW_AT_TI_begin_column(0x07)
    1368                    .dwattr $C$DW$120, DW_AT_TI_max_frame_size(0x1c)
    1369                    .dwpsn  file "C:/ti/CC3000 SDK/MSP430FR5739/Basic WiFi Application/Basic WiFi Source/Source/CC
    1370            
    1371                    .dwfde $C$DW$CIE, wlan_ioctl_set_connection_policy
    1372            $C$DW$121       .dwtag  DW_TAG_formal_parameter, DW_AT_name("should_connect_to_open_ap")
    1373                    .dwattr $C$DW$121, DW_AT_TI_symbol_name("should_connect_to_open_ap")
    1374                    .dwattr $C$DW$121, DW_AT_type(*$C$DW$T$25)
    1375                    .dwattr $C$DW$121, DW_AT_location[DW_OP_reg12 DW_OP_piece 2 DW_OP_reg13 DW_OP_piece 2]
    1376            $C$DW$122       .dwtag  DW_TAG_formal_parameter, DW_AT_name("ulShouldUseFastConnect")
    1377                    .dwattr $C$DW$122, DW_AT_TI_symbol_name("ulShouldUseFastConnect")
    1378                    .dwattr $C$DW$122, DW_AT_type(*$C$DW$T$25)
    1379                    .dwattr $C$DW$122, DW_AT_location[DW_OP_reg14 DW_OP_piece 2 DW_OP_reg15 DW_OP_piece 2]
    1380            $C$DW$123       .dwtag  DW_TAG_formal_parameter, DW_AT_name("ulUseProfiles")
    1381                    .dwattr $C$DW$123, DW_AT_TI_symbol_name("ulUseProfiles")
    1382                    .dwattr $C$DW$123, DW_AT_type(*$C$DW$T$25)
    1383                    .dwattr $C$DW$123, DW_AT_location[DW_OP_breg1 28]
MSP430 Assembler PC v4.3.1 Wed Oct 01 17:44:05 2014

Tools Copyright (c) 2003-2014 Texas Instruments Incorporated
C:\Users\x0135533\AppData\Local\Temp\0627211                         PAGE   29

    1384            
    1385            ;*****************************************************************************
    1386            ;* FUNCTION NAME: wlan_ioctl_set_connection_policy                           *
    1387            ;*                                                                           *
    1388            ;*   Regs Modified     : SP,SR,r6,r7,r8,r9,r10,r11,r12,r13,r14,r15           *
    1389            ;*   Regs Used         : SP,SR,r6,r7,r8,r9,r10,r11,r12,r13,r14,r15           *
    1390            ;*   Local Frame Size  : 0 Args + 4 Auto + 20 Save = 24 byte                 *
    1391            ;*****************************************************************************
    1392            wlan_ioctl_set_connection_policy:
    1393            ;* --------------------------------------------------------------------------*
    1394            ;* r13   assigned to should_connect_to_open_ap
    1395            $C$DW$124       .dwtag  DW_TAG_variable, DW_AT_name("should_connect_to_open_ap")
    1396                    .dwattr $C$DW$124, DW_AT_TI_symbol_name("should_connect_to_open_ap")
    1397                    .dwattr $C$DW$124, DW_AT_type(*$C$DW$T$120)
    1398                    .dwattr $C$DW$124, DW_AT_location[DW_OP_reg13 DW_OP_piece 2 DW_OP_reg14 DW_OP_piece 2]
    1399            ;* r9    assigned to ulShouldUseFastConnect
    1400            $C$DW$125       .dwtag  DW_TAG_variable, DW_AT_name("ulShouldUseFastConnect")
    1401                    .dwattr $C$DW$125, DW_AT_TI_symbol_name("ulShouldUseFastConnect")
    1402                    .dwattr $C$DW$125, DW_AT_type(*$C$DW$T$120)
    1403                    .dwattr $C$DW$125, DW_AT_location[DW_OP_reg9 DW_OP_piece 2 DW_OP_reg10 DW_OP_piece 2]
    1404            ;* r6    assigned to ulUseProfiles
    1405            $C$DW$126       .dwtag  DW_TAG_variable, DW_AT_name("ulUseProfiles")
    1406                    .dwattr $C$DW$126, DW_AT_TI_symbol_name("ulUseProfiles")
    1407                    .dwattr $C$DW$126, DW_AT_type(*$C$DW$T$120)
    1408                    .dwattr $C$DW$126, DW_AT_location[DW_OP_reg6 DW_OP_piece 2 DW_OP_reg7 DW_OP_piece 2]
    1409            $C$DW$127       .dwtag  DW_TAG_variable, DW_AT_name("ret")
    1410                    .dwattr $C$DW$127, DW_AT_TI_symbol_name("ret")
    1411                    .dwattr $C$DW$127, DW_AT_type(*$C$DW$T$32)
    1412                    .dwattr $C$DW$127, DW_AT_location[DW_OP_breg1 0]
    1413            ;* r8    assigned to ptr
    1414            $C$DW$128       .dwtag  DW_TAG_variable, DW_AT_name("ptr")
    1415                    .dwattr $C$DW$128, DW_AT_TI_symbol_name("ptr")
    1416                    .dwattr $C$DW$128, DW_AT_type(*$C$DW$T$21)
    1417                    .dwattr $C$DW$128, DW_AT_location[DW_OP_reg8]
    1418            ;* r15   assigned to args
    1419            $C$DW$129       .dwtag  DW_TAG_variable, DW_AT_name("args")
    1420                    .dwattr $C$DW$129, DW_AT_TI_symbol_name("args")
    1421                    .dwattr $C$DW$129, DW_AT_type(*$C$DW$T$21)
    1422                    .dwattr $C$DW$129, DW_AT_location[DW_OP_reg15]
    1423                    .dwcfi  cfa_offset, 4
    1424                    .dwcfi  save_reg_to_mem, 16, -4
    1425 000000 144A          PUSHM.A   #5,r10                ; [] 
    1426                    .dwcfi  save_reg_to_mem, 10, -8
    1427                    .dwcfi  save_reg_to_mem, 9, -12
    1428                    .dwcfi  save_reg_to_mem, 8, -16
    1429                    .dwcfi  save_reg_to_mem, 7, -20
    1430                    .dwcfi  save_reg_to_mem, 6, -24
    1431                    .dwcfi  cfa_offset, 24
    1432 000002 8221          SUB.W     #4,SP                 ; [] 
    1433                    .dwcfi  cfa_offset, 28
    1434 000004 0EC9          MOVA      r14,r9                ; [] |523| 
    1435 000006 0DCE          MOVA      r13,r14               ; [] |523| 
    1436 000008 0FCA          MOVA      r15,r10               ; [] |523| 
    1437 00000a 0CCD          MOVA      r12,r13               ; [] |523| 
    1438 00000c 4116          MOV.W     28(SP),r6             ; [] |523| 
MSP430 Assembler PC v4.3.1 Wed Oct 01 17:44:05 2014

Tools Copyright (c) 2003-2014 Texas Instruments Incorporated
C:\Users\x0135533\AppData\Local\Temp\0627211                         PAGE   30

         00000e 001C 
    1439 000010 4117          MOV.W     30(SP),r7             ; [] |523| 
         000012 001E 
    1440                    .dwpsn  file "C:/ti/CC3000 SDK/MSP430FR5739/Basic WiFi Application/Basic WiFi Source/Source/CC
    1441 000014 43B1          MOV.W     #-1,0(SP)             ; [] |528| 
         000016 0000 
    1442 000018 43B1          MOV.W     #-1,2(SP)             ; [] |528| 
         00001a 0002 
    1443                    .dwpsn  file "C:/ti/CC3000 SDK/MSP430FR5739/Basic WiFi Application/Basic WiFi Source/Source/CC
    1444 00001c 4218          MOV.W     &tSLInformation+6,r8  ; [] |529| 
         00001e 0006!
    1445                    .dwpsn  file "C:/ti/CC3000 SDK/MSP430FR5739/Basic WiFi Application/Basic WiFi Source/Source/CC
    1446 000020 403C          MOV.W     #9,r12                ; [] |533| 
         000022 0009 
    1447 000024 580C          ADD.W     r8,r12                ; [] |533| 
    1448            $C$DW$130       .dwtag  DW_TAG_TI_branch
    1449                    .dwattr $C$DW$130, DW_AT_low_pc(0x00)
    1450                    .dwattr $C$DW$130, DW_AT_name("UINT32_TO_STREAM_f")
    1451                    .dwattr $C$DW$130, DW_AT_TI_call
    1452 000026 13B0!         CALLA     #UINT32_TO_STREAM_f   ; [] |533| 
         000028 0000 
    1453                                                      ; [] |533| 
    1454                    .dwpsn  file "C:/ti/CC3000 SDK/MSP430FR5739/Basic WiFi Application/Basic WiFi Source/Source/CC
    1455 00002a 09CD          MOVA      r9,r13                ; [] |534| 
    1456 00002c 0ACE          MOVA      r10,r14               ; [] |534| 
    1457            $C$DW$131       .dwtag  DW_TAG_TI_branch
    1458                    .dwattr $C$DW$131, DW_AT_low_pc(0x00)
    1459                    .dwattr $C$DW$131, DW_AT_name("UINT32_TO_STREAM_f")
    1460                    .dwattr $C$DW$131, DW_AT_TI_call
    1461 00002e 13B0!         CALLA     #UINT32_TO_STREAM_f   ; [] |534| 
         000030 0000 
    1462                                                      ; [] |534| 
    1463                    .dwpsn  file "C:/ti/CC3000 SDK/MSP430FR5739/Basic WiFi Application/Basic WiFi Source/Source/CC
    1464 000032 06CD          MOVA      r6,r13                ; [] |535| 
    1465 000034 07CE          MOVA      r7,r14                ; [] |535| 
    1466            $C$DW$132       .dwtag  DW_TAG_TI_branch
    1467                    .dwattr $C$DW$132, DW_AT_low_pc(0x00)
    1468                    .dwattr $C$DW$132, DW_AT_name("UINT32_TO_STREAM_f")
    1469                    .dwattr $C$DW$132, DW_AT_TI_call
    1470 000036 13B0!         CALLA     #UINT32_TO_STREAM_f   ; [] |535| 
         000038 0000 
    1471                                                      ; [] |535| 
    1472                    .dwpsn  file "C:/ti/CC3000 SDK/MSP430FR5739/Basic WiFi Application/Basic WiFi Source/Source/CC
    1473 00003a 422C          MOV.W     #4,r12                ; [] |538| 
    1474 00003c 08CD          MOVA      r8,r13                ; [] |538| 
    1475 00003e 407E          MOV.B     #12,r14               ; [] |538| 
         000040 000C 
    1476            $C$DW$133       .dwtag  DW_TAG_TI_branch
    1477                    .dwattr $C$DW$133, DW_AT_low_pc(0x00)
    1478                    .dwattr $C$DW$133, DW_AT_name("hci_command_send")
    1479                    .dwattr $C$DW$133, DW_AT_TI_call
    1480 000042 13B0!         CALLA     #hci_command_send     ; [] |538| 
         000044 0000 
    1481                                                      ; [] |538| 
    1482                    .dwpsn  file "C:/ti/CC3000 SDK/MSP430FR5739/Basic WiFi Application/Basic WiFi Source/Source/CC
MSP430 Assembler PC v4.3.1 Wed Oct 01 17:44:05 2014

Tools Copyright (c) 2003-2014 Texas Instruments Incorporated
C:\Users\x0135533\AppData\Local\Temp\0627211                         PAGE   31

    1483 000046 422C          MOV.W     #4,r12                ; [] |542| 
    1484 000048 01CD          MOVA      SP,r13                ; [] |542| 
    1485            $C$DW$134       .dwtag  DW_TAG_TI_branch
    1486                    .dwattr $C$DW$134, DW_AT_low_pc(0x00)
    1487                    .dwattr $C$DW$134, DW_AT_name("SimpleLinkWaitEvent")
    1488                    .dwattr $C$DW$134, DW_AT_TI_call
    1489 00004a 13B0!         CALLA     #SimpleLinkWaitEvent  ; [] |542| 
         00004c 0000 
    1490                                                      ; [] |542| 
    1491                    .dwpsn  file "C:/ti/CC3000 SDK/MSP430FR5739/Basic WiFi Application/Basic WiFi Source/Source/CC
    1492 00004e 412C          MOV.W     0(SP),r12             ; [] |544| 
    1493 000050 411D          MOV.W     2(SP),r13             ; [] |544| 
         000052 0002 
    1494 000054 5221          ADD.W     #4,SP                 ; [] 
    1495                    .dwcfi  cfa_offset, 24
    1496 000056 1646          POPM.A    #5,r10                ; [] 
    1497                    .dwcfi  restore_reg, 6
    1498                    .dwcfi  restore_reg, 7
    1499                    .dwcfi  restore_reg, 8
    1500                    .dwcfi  restore_reg, 9
    1501                    .dwcfi  restore_reg, 10
    1502                    .dwcfi  cfa_offset, 4
    1503            $C$DW$135       .dwtag  DW_TAG_TI_branch
    1504                    .dwattr $C$DW$135, DW_AT_low_pc(0x00)
    1505                    .dwattr $C$DW$135, DW_AT_TI_return
    1506 000058 0110          RETA      ; [] 
    1507                    ; [] 
    1508                    .dwattr $C$DW$120, DW_AT_TI_end_file("C:/ti/CC3000 SDK/MSP430FR5739/Basic WiFi Application/Bas
    1509                    .dwattr $C$DW$120, DW_AT_TI_end_line(0x221)
    1510                    .dwattr $C$DW$120, DW_AT_TI_end_column(0x01)
    1511                    .dwendentry
    1512                    .dwendtag $C$DW$120
    1513            
    1514 000000               .sect   ".text:wlan_ioctl_get_scan_results"
    1515                    .align  2
    1516                    .clink
    1517                    .global wlan_ioctl_get_scan_results
    1518            
    1519            $C$DW$136       .dwtag  DW_TAG_subprogram, DW_AT_name("wlan_ioctl_get_scan_results")
    1520                    .dwattr $C$DW$136, DW_AT_low_pc(wlan_ioctl_get_scan_results)
    1521                    .dwattr $C$DW$136, DW_AT_high_pc(0x00)
    1522                    .dwattr $C$DW$136, DW_AT_TI_symbol_name("wlan_ioctl_get_scan_results")
    1523                    .dwattr $C$DW$136, DW_AT_external
    1524                    .dwattr $C$DW$136, DW_AT_type(*$C$DW$T$32)
    1525                    .dwattr $C$DW$136, DW_AT_TI_begin_file("C:/ti/CC3000 SDK/MSP430FR5739/Basic WiFi Application/B
    1526                    .dwattr $C$DW$136, DW_AT_TI_begin_line(0x316)
    1527                    .dwattr $C$DW$136, DW_AT_TI_begin_column(0x07)
    1528                    .dwattr $C$DW$136, DW_AT_TI_max_frame_size(0x0c)
    1529                    .dwpsn  file "C:/ti/CC3000 SDK/MSP430FR5739/Basic WiFi Application/Basic WiFi Source/Source/CC
    1530            
    1531                    .dwfde $C$DW$CIE, wlan_ioctl_get_scan_results
    1532            $C$DW$137       .dwtag  DW_TAG_formal_parameter, DW_AT_name("ulScanTimeout")
    1533                    .dwattr $C$DW$137, DW_AT_TI_symbol_name("ulScanTimeout")
    1534                    .dwattr $C$DW$137, DW_AT_type(*$C$DW$T$25)
    1535                    .dwattr $C$DW$137, DW_AT_location[DW_OP_reg12 DW_OP_piece 2 DW_OP_reg13 DW_OP_piece 2]
MSP430 Assembler PC v4.3.1 Wed Oct 01 17:44:05 2014

Tools Copyright (c) 2003-2014 Texas Instruments Incorporated
C:\Users\x0135533\AppData\Local\Temp\0627211                         PAGE   32

    1536            $C$DW$138       .dwtag  DW_TAG_formal_parameter, DW_AT_name("ucResults")
    1537                    .dwattr $C$DW$138, DW_AT_TI_symbol_name("ucResults")
    1538                    .dwattr $C$DW$138, DW_AT_type(*$C$DW$T$21)
    1539                    .dwattr $C$DW$138, DW_AT_location[DW_OP_reg14]
    1540            
    1541            ;*****************************************************************************
    1542            ;* FUNCTION NAME: wlan_ioctl_get_scan_results                                *
    1543            ;*                                                                           *
    1544            ;*   Regs Modified     : SP,SR,r9,r10,r11,r12,r13,r14,r15                    *
    1545            ;*   Regs Used         : SP,SR,r9,r10,r11,r12,r13,r14,r15                    *
    1546            ;*   Local Frame Size  : 0 Args + 0 Auto + 8 Save = 8 byte                   *
    1547            ;*****************************************************************************
    1548            wlan_ioctl_get_scan_results:
    1549            ;* --------------------------------------------------------------------------*
    1550            ;* r13   assigned to ulScanTimeout
    1551            $C$DW$139       .dwtag  DW_TAG_variable, DW_AT_name("ulScanTimeout")
    1552                    .dwattr $C$DW$139, DW_AT_TI_symbol_name("ulScanTimeout")
    1553                    .dwattr $C$DW$139, DW_AT_type(*$C$DW$T$120)
    1554                    .dwattr $C$DW$139, DW_AT_location[DW_OP_reg13 DW_OP_piece 2 DW_OP_reg14 DW_OP_piece 2]
    1555            ;* r10   assigned to ucResults
    1556            $C$DW$140       .dwtag  DW_TAG_variable, DW_AT_name("ucResults")
    1557                    .dwattr $C$DW$140, DW_AT_TI_symbol_name("ucResults")
    1558                    .dwattr $C$DW$140, DW_AT_type(*$C$DW$T$74)
    1559                    .dwattr $C$DW$140, DW_AT_location[DW_OP_reg10]
    1560            ;* r9    assigned to ptr
    1561            $C$DW$141       .dwtag  DW_TAG_variable, DW_AT_name("ptr")
    1562                    .dwattr $C$DW$141, DW_AT_TI_symbol_name("ptr")
    1563                    .dwattr $C$DW$141, DW_AT_type(*$C$DW$T$21)
    1564                    .dwattr $C$DW$141, DW_AT_location[DW_OP_reg9]
    1565                    .dwcfi  cfa_offset, 4
    1566                    .dwcfi  save_reg_to_mem, 16, -4
    1567 000000 141A          PUSHM.A   #2,r10                ; [] 
    1568                    .dwcfi  save_reg_to_mem, 10, -8
    1569                    .dwcfi  save_reg_to_mem, 9, -12
    1570                    .dwcfi  cfa_offset, 12
    1571 000002 0ECA          MOVA      r14,r10               ; [] |792| 
    1572 000004 0DCE          MOVA      r13,r14               ; [] |792| 
    1573 000006 0CCD          MOVA      r12,r13               ; [] |792| 
    1574                    .dwpsn  file "C:/ti/CC3000 SDK/MSP430FR5739/Basic WiFi Application/Basic WiFi Source/Source/CC
    1575 000008 4219          MOV.W     &tSLInformation+6,r9  ; [] |796| 
         00000a 0006!
    1576                    .dwpsn  file "C:/ti/CC3000 SDK/MSP430FR5739/Basic WiFi Application/Basic WiFi Source/Source/CC
    1577 00000c 403C          MOV.W     #9,r12                ; [] |800| 
         00000e 0009 
    1578 000010 590C          ADD.W     r9,r12                ; [] |800| 
    1579            $C$DW$142       .dwtag  DW_TAG_TI_branch
    1580                    .dwattr $C$DW$142, DW_AT_low_pc(0x00)
    1581                    .dwattr $C$DW$142, DW_AT_name("UINT32_TO_STREAM_f")
    1582                    .dwattr $C$DW$142, DW_AT_TI_call
    1583 000012 13B0!         CALLA     #UINT32_TO_STREAM_f   ; [] |800| 
         000014 0000 
    1584                                                      ; [] |800| 
    1585                    .dwpsn  file "C:/ti/CC3000 SDK/MSP430FR5739/Basic WiFi Application/Basic WiFi Source/Source/CC
    1586 000016 403C          MOV.W     #7,r12                ; [] |803| 
         000018 0007 
MSP430 Assembler PC v4.3.1 Wed Oct 01 17:44:05 2014

Tools Copyright (c) 2003-2014 Texas Instruments Incorporated
C:\Users\x0135533\AppData\Local\Temp\0627211                         PAGE   33

    1587 00001a 09CD          MOVA      r9,r13                ; [] |803| 
    1588 00001c 426E          MOV.B     #4,r14                ; [] |803| 
    1589            $C$DW$143       .dwtag  DW_TAG_TI_branch
    1590                    .dwattr $C$DW$143, DW_AT_low_pc(0x00)
    1591                    .dwattr $C$DW$143, DW_AT_name("hci_command_send")
    1592                    .dwattr $C$DW$143, DW_AT_TI_call
    1593 00001e 13B0!         CALLA     #hci_command_send     ; [] |803| 
         000020 0000 
    1594                                                      ; [] |803| 
    1595                    .dwpsn  file "C:/ti/CC3000 SDK/MSP430FR5739/Basic WiFi Application/Basic WiFi Source/Source/CC
    1596 000022 403C          MOV.W     #7,r12                ; [] |807| 
         000024 0007 
    1597 000026 0ACD          MOVA      r10,r13               ; [] |807| 
    1598            $C$DW$144       .dwtag  DW_TAG_TI_branch
    1599                    .dwattr $C$DW$144, DW_AT_low_pc(0x00)
    1600                    .dwattr $C$DW$144, DW_AT_name("SimpleLinkWaitEvent")
    1601                    .dwattr $C$DW$144, DW_AT_TI_call
    1602 000028 13B0!         CALLA     #SimpleLinkWaitEvent  ; [] |807| 
         00002a 0000 
    1603                                                      ; [] |807| 
    1604                    .dwpsn  file "C:/ti/CC3000 SDK/MSP430FR5739/Basic WiFi Application/Basic WiFi Source/Source/CC
    1605 00002c 430C          MOV.W     #0,r12                ; [] |809| 
    1606 00002e 430D          MOV.W     #0,r13                ; [] |809| 
    1607 000030 1619          POPM.A    #2,r10                ; [] 
    1608                    .dwcfi  restore_reg, 9
    1609                    .dwcfi  restore_reg, 10
    1610                    .dwcfi  cfa_offset, 4
    1611            $C$DW$145       .dwtag  DW_TAG_TI_branch
    1612                    .dwattr $C$DW$145, DW_AT_low_pc(0x00)
    1613                    .dwattr $C$DW$145, DW_AT_TI_return
    1614 000032 0110          RETA      ; [] 
    1615                    ; [] 
    1616                    .dwattr $C$DW$136, DW_AT_TI_end_file("C:/ti/CC3000 SDK/MSP430FR5739/Basic WiFi Application/Bas
    1617                    .dwattr $C$DW$136, DW_AT_TI_end_line(0x32a)
    1618                    .dwattr $C$DW$136, DW_AT_TI_end_column(0x01)
    1619                    .dwendentry
    1620                    .dwendtag $C$DW$136
    1621            
    1622 000000               .sect   ".text:wlan_ioctl_del_profile"
    1623                    .align  2
    1624                    .clink
    1625                    .global wlan_ioctl_del_profile
    1626            
    1627            $C$DW$146       .dwtag  DW_TAG_subprogram, DW_AT_name("wlan_ioctl_del_profile")
    1628                    .dwattr $C$DW$146, DW_AT_low_pc(wlan_ioctl_del_profile)
    1629                    .dwattr $C$DW$146, DW_AT_high_pc(0x00)
    1630                    .dwattr $C$DW$146, DW_AT_TI_symbol_name("wlan_ioctl_del_profile")
    1631                    .dwattr $C$DW$146, DW_AT_external
    1632                    .dwattr $C$DW$146, DW_AT_type(*$C$DW$T$32)
    1633                    .dwattr $C$DW$146, DW_AT_TI_begin_file("C:/ti/CC3000 SDK/MSP430FR5739/Basic WiFi Application/B
    1634                    .dwattr $C$DW$146, DW_AT_TI_begin_line(0x2dc)
    1635                    .dwattr $C$DW$146, DW_AT_TI_begin_column(0x07)
    1636                    .dwattr $C$DW$146, DW_AT_TI_max_frame_size(0x0c)
    1637                    .dwpsn  file "C:/ti/CC3000 SDK/MSP430FR5739/Basic WiFi Application/Basic WiFi Source/Source/CC
    1638            
MSP430 Assembler PC v4.3.1 Wed Oct 01 17:44:05 2014

Tools Copyright (c) 2003-2014 Texas Instruments Incorporated
C:\Users\x0135533\AppData\Local\Temp\0627211                         PAGE   34

    1639                    .dwfde $C$DW$CIE, wlan_ioctl_del_profile
    1640            $C$DW$147       .dwtag  DW_TAG_formal_parameter, DW_AT_name("ulIndex")
    1641                    .dwattr $C$DW$147, DW_AT_TI_symbol_name("ulIndex")
    1642                    .dwattr $C$DW$147, DW_AT_type(*$C$DW$T$25)
    1643                    .dwattr $C$DW$147, DW_AT_location[DW_OP_reg12 DW_OP_piece 2 DW_OP_reg13 DW_OP_piece 2]
    1644            
    1645            ;*****************************************************************************
    1646            ;* FUNCTION NAME: wlan_ioctl_del_profile                                     *
    1647            ;*                                                                           *
    1648            ;*   Regs Modified     : SP,SR,r10,r11,r12,r13,r14,r15                       *
    1649            ;*   Regs Used         : SP,SR,r10,r11,r12,r13,r14,r15                       *
    1650            ;*   Local Frame Size  : 0 Args + 4 Auto + 4 Save = 8 byte                   *
    1651            ;*****************************************************************************
    1652            wlan_ioctl_del_profile:
    1653            ;* --------------------------------------------------------------------------*
    1654            ;* r15   assigned to ulIndex
    1655            $C$DW$148       .dwtag  DW_TAG_variable, DW_AT_name("ulIndex")
    1656                    .dwattr $C$DW$148, DW_AT_TI_symbol_name("ulIndex")
    1657                    .dwattr $C$DW$148, DW_AT_type(*$C$DW$T$120)
    1658                    .dwattr $C$DW$148, DW_AT_location[DW_OP_reg15 DW_OP_piece 2 DW_OP_reg14 DW_OP_piece 2]
    1659            $C$DW$149       .dwtag  DW_TAG_variable, DW_AT_name("ret")
    1660                    .dwattr $C$DW$149, DW_AT_TI_symbol_name("ret")
    1661                    .dwattr $C$DW$149, DW_AT_type(*$C$DW$T$32)
    1662                    .dwattr $C$DW$149, DW_AT_location[DW_OP_breg1 0]
    1663            ;* r10   assigned to ptr
    1664            $C$DW$150       .dwtag  DW_TAG_variable, DW_AT_name("ptr")
    1665                    .dwattr $C$DW$150, DW_AT_TI_symbol_name("ptr")
    1666                    .dwattr $C$DW$150, DW_AT_type(*$C$DW$T$21)
    1667                    .dwattr $C$DW$150, DW_AT_location[DW_OP_reg10]
    1668                    .dwcfi  cfa_offset, 4
    1669                    .dwcfi  save_reg_to_mem, 16, -4
    1670 000000 140A          PUSHM.A   #1,r10                ; [] 
    1671                    .dwcfi  save_reg_to_mem, 10, -8
    1672                    .dwcfi  cfa_offset, 8
    1673 000002 8221          SUB.W     #4,SP                 ; [] 
    1674                    .dwcfi  cfa_offset, 12
    1675 000004 0DCE          MOVA      r13,r14               ; [] |733| 
    1676 000006 0CCD          MOVA      r12,r13               ; [] |733| 
    1677                    .dwpsn  file "C:/ti/CC3000 SDK/MSP430FR5739/Basic WiFi Application/Basic WiFi Source/Source/CC
    1678 000008 421A          MOV.W     &tSLInformation+6,r10 ; [] |738| 
         00000a 0006!
    1679                    .dwpsn  file "C:/ti/CC3000 SDK/MSP430FR5739/Basic WiFi Application/Basic WiFi Source/Source/CC
    1680 00000c 403C          MOV.W     #9,r12                ; [] |742| 
         00000e 0009 
    1681 000010 5A0C          ADD.W     r10,r12               ; [] |742| 
    1682            $C$DW$151       .dwtag  DW_TAG_TI_branch
    1683                    .dwattr $C$DW$151, DW_AT_low_pc(0x00)
    1684                    .dwattr $C$DW$151, DW_AT_name("UINT32_TO_STREAM_f")
    1685                    .dwattr $C$DW$151, DW_AT_TI_call
    1686 000012 13B0!         CALLA     #UINT32_TO_STREAM_f   ; [] |742| 
         000014 0000 
    1687                                                      ; [] |742| 
    1688                    .dwpsn  file "C:/ti/CC3000 SDK/MSP430FR5739/Basic WiFi Application/Basic WiFi Source/Source/CC
    1689 000016 43B1          MOV.W     #-1,0(SP)             ; [] |743| 
         000018 0000 
MSP430 Assembler PC v4.3.1 Wed Oct 01 17:44:05 2014

Tools Copyright (c) 2003-2014 Texas Instruments Incorporated
C:\Users\x0135533\AppData\Local\Temp\0627211                         PAGE   35

    1690 00001a 43B1          MOV.W     #-1,2(SP)             ; [] |743| 
         00001c 0002 
    1691                    .dwpsn  file "C:/ti/CC3000 SDK/MSP430FR5739/Basic WiFi Application/Basic WiFi Source/Source/CC
    1692 00001e 403C          MOV.W     #6,r12                ; [] |746| 
         000020 0006 
    1693 000022 0ACD          MOVA      r10,r13               ; [] |746| 
    1694 000024 426E          MOV.B     #4,r14                ; [] |746| 
    1695            $C$DW$152       .dwtag  DW_TAG_TI_branch
    1696                    .dwattr $C$DW$152, DW_AT_low_pc(0x00)
    1697                    .dwattr $C$DW$152, DW_AT_name("hci_command_send")
    1698                    .dwattr $C$DW$152, DW_AT_TI_call
    1699 000026 13B0!         CALLA     #hci_command_send     ; [] |746| 
         000028 0000 
    1700                                                      ; [] |746| 
    1701                    .dwpsn  file "C:/ti/CC3000 SDK/MSP430FR5739/Basic WiFi Application/Basic WiFi Source/Source/CC
    1702 00002a 403C          MOV.W     #6,r12                ; [] |750| 
         00002c 0006 
    1703 00002e 01CD          MOVA      SP,r13                ; [] |750| 
    1704            $C$DW$153       .dwtag  DW_TAG_TI_branch
    1705                    .dwattr $C$DW$153, DW_AT_low_pc(0x00)
    1706                    .dwattr $C$DW$153, DW_AT_name("SimpleLinkWaitEvent")
    1707                    .dwattr $C$DW$153, DW_AT_TI_call
    1708 000030 13B0!         CALLA     #SimpleLinkWaitEvent  ; [] |750| 
         000032 0000 
    1709                                                      ; [] |750| 
    1710                    .dwpsn  file "C:/ti/CC3000 SDK/MSP430FR5739/Basic WiFi Application/Basic WiFi Source/Source/CC
    1711 000034 412C          MOV.W     0(SP),r12             ; [] |752| 
    1712 000036 411D          MOV.W     2(SP),r13             ; [] |752| 
         000038 0002 
    1713 00003a 5221          ADD.W     #4,SP                 ; [] 
    1714                    .dwcfi  cfa_offset, 8
    1715 00003c 160A          POPM.A    #1,r10                ; [] 
    1716                    .dwcfi  restore_reg, 10
    1717                    .dwcfi  cfa_offset, 4
    1718            $C$DW$154       .dwtag  DW_TAG_TI_branch
    1719                    .dwattr $C$DW$154, DW_AT_low_pc(0x00)
    1720                    .dwattr $C$DW$154, DW_AT_TI_return
    1721 00003e 0110          RETA      ; [] 
    1722                    ; [] 
    1723                    .dwattr $C$DW$146, DW_AT_TI_end_file("C:/ti/CC3000 SDK/MSP430FR5739/Basic WiFi Application/Bas
    1724                    .dwattr $C$DW$146, DW_AT_TI_end_line(0x2f1)
    1725                    .dwattr $C$DW$146, DW_AT_TI_end_column(0x01)
    1726                    .dwendentry
    1727                    .dwendtag $C$DW$146
    1728            
    1729 000000               .sect   ".text:wlan_init"
    1730                    .align  2
    1731                    .clink
    1732                    .global wlan_init
    1733            
    1734            $C$DW$155       .dwtag  DW_TAG_subprogram, DW_AT_name("wlan_init")
    1735                    .dwattr $C$DW$155, DW_AT_low_pc(wlan_init)
    1736                    .dwattr $C$DW$155, DW_AT_high_pc(0x00)
    1737                    .dwattr $C$DW$155, DW_AT_TI_symbol_name("wlan_init")
    1738                    .dwattr $C$DW$155, DW_AT_external
MSP430 Assembler PC v4.3.1 Wed Oct 01 17:44:05 2014

Tools Copyright (c) 2003-2014 Texas Instruments Incorporated
C:\Users\x0135533\AppData\Local\Temp\0627211                         PAGE   36

    1739                    .dwattr $C$DW$155, DW_AT_TI_begin_file("C:/ti/CC3000 SDK/MSP430FR5739/Basic WiFi Application/B
    1740                    .dwattr $C$DW$155, DW_AT_TI_begin_line(0xb2)
    1741                    .dwattr $C$DW$155, DW_AT_TI_begin_column(0x06)
    1742                    .dwattr $C$DW$155, DW_AT_TI_max_frame_size(0x10)
    1743                    .dwpsn  file "C:/ti/CC3000 SDK/MSP430FR5739/Basic WiFi Application/Basic WiFi Source/Source/CC
    1744            
    1745                    .dwfde $C$DW$CIE, wlan_init
    1746            $C$DW$156       .dwtag  DW_TAG_formal_parameter, DW_AT_name("sWlanCB")
    1747                    .dwattr $C$DW$156, DW_AT_TI_symbol_name("sWlanCB")
    1748                    .dwattr $C$DW$156, DW_AT_type(*$C$DW$T$35)
    1749                    .dwattr $C$DW$156, DW_AT_location[DW_OP_reg12]
    1750            $C$DW$157       .dwtag  DW_TAG_formal_parameter, DW_AT_name("sFWPatches")
    1751                    .dwattr $C$DW$157, DW_AT_TI_symbol_name("sFWPatches")
    1752                    .dwattr $C$DW$157, DW_AT_type(*$C$DW$T$29)
    1753                    .dwattr $C$DW$157, DW_AT_location[DW_OP_reg13]
    1754            $C$DW$158       .dwtag  DW_TAG_formal_parameter, DW_AT_name("sDriverPatches")
    1755                    .dwattr $C$DW$158, DW_AT_TI_symbol_name("sDriverPatches")
    1756                    .dwattr $C$DW$158, DW_AT_type(*$C$DW$T$30)
    1757                    .dwattr $C$DW$158, DW_AT_location[DW_OP_reg14]
    1758            $C$DW$159       .dwtag  DW_TAG_formal_parameter, DW_AT_name("sBootLoaderPatches")
    1759                    .dwattr $C$DW$159, DW_AT_TI_symbol_name("sBootLoaderPatches")
    1760                    .dwattr $C$DW$159, DW_AT_type(*$C$DW$T$31)
    1761                    .dwattr $C$DW$159, DW_AT_location[DW_OP_reg15]
    1762            $C$DW$160       .dwtag  DW_TAG_formal_parameter, DW_AT_name("sReadWlanInterruptPin")
    1763                    .dwattr $C$DW$160, DW_AT_TI_symbol_name("sReadWlanInterruptPin")
    1764                    .dwattr $C$DW$160, DW_AT_type(*$C$DW$T$38)
    1765                    .dwattr $C$DW$160, DW_AT_location[DW_OP_breg1 16]
    1766            $C$DW$161       .dwtag  DW_TAG_formal_parameter, DW_AT_name("sWlanInterruptEnable")
    1767                    .dwattr $C$DW$161, DW_AT_TI_symbol_name("sWlanInterruptEnable")
    1768                    .dwattr $C$DW$161, DW_AT_type(*$C$DW$T$41)
    1769                    .dwattr $C$DW$161, DW_AT_location[DW_OP_breg1 20]
    1770            $C$DW$162       .dwtag  DW_TAG_formal_parameter, DW_AT_name("sWlanInterruptDisable")
    1771                    .dwattr $C$DW$162, DW_AT_TI_symbol_name("sWlanInterruptDisable")
    1772                    .dwattr $C$DW$162, DW_AT_type(*$C$DW$T$42)
    1773                    .dwattr $C$DW$162, DW_AT_location[DW_OP_breg1 24]
    1774            $C$DW$163       .dwtag  DW_TAG_formal_parameter, DW_AT_name("sWriteWlanPin")
    1775                    .dwattr $C$DW$163, DW_AT_TI_symbol_name("sWriteWlanPin")
    1776                    .dwattr $C$DW$163, DW_AT_type(*$C$DW$T$45)
    1777                    .dwattr $C$DW$163, DW_AT_location[DW_OP_breg1 28]
    1778            
    1779            ;*****************************************************************************
    1780            ;* FUNCTION NAME: wlan_init                                                  *
    1781            ;*                                                                           *
    1782            ;*   Regs Modified     : SP,r8,r9,r10,r11                                    *
    1783            ;*   Regs Used         : SP,r8,r9,r10,r11,r12,r13,r14,r15                    *
    1784            ;*   Local Frame Size  : 0 Args + 0 Auto + 12 Save = 12 byte                 *
    1785            ;*****************************************************************************
    1786            wlan_init:
    1787            ;* --------------------------------------------------------------------------*
    1788            ;* r12   assigned to sWlanCB
    1789            $C$DW$164       .dwtag  DW_TAG_variable, DW_AT_name("sWlanCB")
    1790                    .dwattr $C$DW$164, DW_AT_TI_symbol_name("sWlanCB")
    1791                    .dwattr $C$DW$164, DW_AT_type(*$C$DW$T$55)
    1792                    .dwattr $C$DW$164, DW_AT_location[DW_OP_reg12]
    1793            ;* r13   assigned to sFWPatches
MSP430 Assembler PC v4.3.1 Wed Oct 01 17:44:05 2014

Tools Copyright (c) 2003-2014 Texas Instruments Incorporated
C:\Users\x0135533\AppData\Local\Temp\0627211                         PAGE   37

    1794            $C$DW$165       .dwtag  DW_TAG_variable, DW_AT_name("sFWPatches")
    1795                    .dwattr $C$DW$165, DW_AT_TI_symbol_name("sFWPatches")
    1796                    .dwattr $C$DW$165, DW_AT_type(*$C$DW$T$128)
    1797                    .dwattr $C$DW$165, DW_AT_location[DW_OP_reg13]
    1798            ;* r14   assigned to sDriverPatches
    1799            $C$DW$166       .dwtag  DW_TAG_variable, DW_AT_name("sDriverPatches")
    1800                    .dwattr $C$DW$166, DW_AT_TI_symbol_name("sDriverPatches")
    1801                    .dwattr $C$DW$166, DW_AT_type(*$C$DW$T$127)
    1802                    .dwattr $C$DW$166, DW_AT_location[DW_OP_reg14]
    1803            ;* r15   assigned to sBootLoaderPatches
    1804            $C$DW$167       .dwtag  DW_TAG_variable, DW_AT_name("sBootLoaderPatches")
    1805                    .dwattr $C$DW$167, DW_AT_TI_symbol_name("sBootLoaderPatches")
    1806                    .dwattr $C$DW$167, DW_AT_type(*$C$DW$T$126)
    1807                    .dwattr $C$DW$167, DW_AT_location[DW_OP_reg15]
    1808            ;* r8    assigned to sReadWlanInterruptPin
    1809            $C$DW$168       .dwtag  DW_TAG_variable, DW_AT_name("sReadWlanInterruptPin")
    1810                    .dwattr $C$DW$168, DW_AT_TI_symbol_name("sReadWlanInterruptPin")
    1811                    .dwattr $C$DW$168, DW_AT_type(*$C$DW$T$98)
    1812                    .dwattr $C$DW$168, DW_AT_location[DW_OP_reg8]
    1813            ;* r9    assigned to sWlanInterruptEnable
    1814            $C$DW$169       .dwtag  DW_TAG_variable, DW_AT_name("sWlanInterruptEnable")
    1815                    .dwattr $C$DW$169, DW_AT_TI_symbol_name("sWlanInterruptEnable")
    1816                    .dwattr $C$DW$169, DW_AT_type(*$C$DW$T$59)
    1817                    .dwattr $C$DW$169, DW_AT_location[DW_OP_reg9]
    1818            ;* r10   assigned to sWlanInterruptDisable
    1819            $C$DW$170       .dwtag  DW_TAG_variable, DW_AT_name("sWlanInterruptDisable")
    1820                    .dwattr $C$DW$170, DW_AT_TI_symbol_name("sWlanInterruptDisable")
    1821                    .dwattr $C$DW$170, DW_AT_type(*$C$DW$T$58)
    1822                    .dwattr $C$DW$170, DW_AT_location[DW_OP_reg10]
    1823            ;* r11   assigned to sWriteWlanPin
    1824            $C$DW$171       .dwtag  DW_TAG_variable, DW_AT_name("sWriteWlanPin")
    1825                    .dwattr $C$DW$171, DW_AT_TI_symbol_name("sWriteWlanPin")
    1826                    .dwattr $C$DW$171, DW_AT_type(*$C$DW$T$62)
    1827                    .dwattr $C$DW$171, DW_AT_location[DW_OP_reg11]
    1828                    .dwcfi  cfa_offset, 4
    1829                    .dwcfi  save_reg_to_mem, 16, -4
    1830 000000 142A          PUSHM.A   #3,r10                ; [] 
    1831                    .dwcfi  save_reg_to_mem, 10, -8
    1832                    .dwcfi  save_reg_to_mem, 9, -12
    1833                    .dwcfi  save_reg_to_mem, 8, -16
    1834                    .dwcfi  cfa_offset, 16
    1835 000002 013B          MOVX.A    28(SP),r11            ; [] |186| 
         000004 001C 
    1836 000006 013A          MOVX.A    24(SP),r10            ; [] |186| 
         000008 0018 
    1837 00000a 0139          MOVX.A    20(SP),r9             ; [] |186| 
         00000c 0014 
    1838 00000e 0138          MOVX.A    16(SP),r8             ; [] |186| 
         000010 0010 
    1839                    .dwpsn  file "C:/ti/CC3000 SDK/MSP430FR5739/Basic WiFi Application/Basic WiFi Source/Source/CC
    1840 000012 0D60!         MOVX.A    r13,&tSLInformation+8 ; [] |188| 
         000014 0008 
    1841                    .dwpsn  file "C:/ti/CC3000 SDK/MSP430FR5739/Basic WiFi Application/Basic WiFi Source/Source/CC
    1842 000016 0E60!         MOVX.A    r14,&tSLInformation+12 ; [] |189| 
         000018 000C 
MSP430 Assembler PC v4.3.1 Wed Oct 01 17:44:05 2014

Tools Copyright (c) 2003-2014 Texas Instruments Incorporated
C:\Users\x0135533\AppData\Local\Temp\0627211                         PAGE   38

    1843                    .dwpsn  file "C:/ti/CC3000 SDK/MSP430FR5739/Basic WiFi Application/Basic WiFi Source/Source/CC
    1844 00001a 0F60!         MOVX.A    r15,&tSLInformation+16 ; [] |190| 
         00001c 0010 
    1845                    .dwpsn  file "C:/ti/CC3000 SDK/MSP430FR5739/Basic WiFi Application/Basic WiFi Source/Source/CC
    1846 00001e 0860!         MOVX.A    r8,&tSLInformation+24 ; [] |193| 
         000020 0018 
    1847                    .dwpsn  file "C:/ti/CC3000 SDK/MSP430FR5739/Basic WiFi Application/Basic WiFi Source/Source/CC
    1848 000022 0960!         MOVX.A    r9,&tSLInformation+28 ; [] |194| 
         000024 001C 
    1849                    .dwpsn  file "C:/ti/CC3000 SDK/MSP430FR5739/Basic WiFi Application/Basic WiFi Source/Source/CC
    1850 000026 0A60!         MOVX.A    r10,&tSLInformation+32 ; [] |195| 
         000028 0020 
    1851                    .dwpsn  file "C:/ti/CC3000 SDK/MSP430FR5739/Basic WiFi Application/Basic WiFi Source/Source/CC
    1852 00002a 0B60!         MOVX.A    r11,&tSLInformation+36 ; [] |196| 
         00002c 0024 
    1853                    .dwpsn  file "C:/ti/CC3000 SDK/MSP430FR5739/Basic WiFi Application/Basic WiFi Source/Source/CC
    1854 00002e 0C60!         MOVX.A    r12,&tSLInformation+20 ; [] |199| 
         000030 0014 
    1855                    .dwpsn  file "C:/ti/CC3000 SDK/MSP430FR5739/Basic WiFi Application/Basic WiFi Source/Source/CC
    1856 000032 43D2          MOV.B     #1,&tSLInformation+60 ; [] |202| 
         000034 003C!
    1857 000036 1628          POPM.A    #3,r10                ; [] 
    1858                    .dwcfi  restore_reg, 8
    1859                    .dwcfi  restore_reg, 9
    1860                    .dwcfi  restore_reg, 10
    1861                    .dwcfi  cfa_offset, 4
    1862            $C$DW$172       .dwtag  DW_TAG_TI_branch
    1863                    .dwattr $C$DW$172, DW_AT_low_pc(0x00)
    1864                    .dwattr $C$DW$172, DW_AT_TI_return
    1865 000038 0110          RETA      ; [] 
    1866                    ; [] 
    1867                    .dwattr $C$DW$155, DW_AT_TI_end_file("C:/ti/CC3000 SDK/MSP430FR5739/Basic WiFi Application/Bas
    1868                    .dwattr $C$DW$155, DW_AT_TI_end_line(0xcb)
    1869                    .dwattr $C$DW$155, DW_AT_TI_end_column(0x01)
    1870                    .dwendentry
    1871                    .dwendtag $C$DW$155
    1872            
    1873 000000               .sect   ".text:wlan_disconnect"
    1874                    .align  2
    1875                    .clink
    1876                    .global wlan_disconnect
    1877            
    1878            $C$DW$173       .dwtag  DW_TAG_subprogram, DW_AT_name("wlan_disconnect")
    1879                    .dwattr $C$DW$173, DW_AT_low_pc(wlan_disconnect)
    1880                    .dwattr $C$DW$173, DW_AT_high_pc(0x00)
    1881                    .dwattr $C$DW$173, DW_AT_TI_symbol_name("wlan_disconnect")
    1882                    .dwattr $C$DW$173, DW_AT_external
    1883                    .dwattr $C$DW$173, DW_AT_type(*$C$DW$T$32)
    1884                    .dwattr $C$DW$173, DW_AT_TI_begin_file("C:/ti/CC3000 SDK/MSP430FR5739/Basic WiFi Application/B
    1885                    .dwattr $C$DW$173, DW_AT_TI_begin_line(0x1d7)
    1886                    .dwattr $C$DW$173, DW_AT_TI_begin_column(0x07)
    1887                    .dwattr $C$DW$173, DW_AT_TI_max_frame_size(0x08)
    1888                    .dwpsn  file "C:/ti/CC3000 SDK/MSP430FR5739/Basic WiFi Application/Basic WiFi Source/Source/CC
    1889            
    1890                    .dwfde $C$DW$CIE, wlan_disconnect
MSP430 Assembler PC v4.3.1 Wed Oct 01 17:44:05 2014

Tools Copyright (c) 2003-2014 Texas Instruments Incorporated
C:\Users\x0135533\AppData\Local\Temp\0627211                         PAGE   39

    1891            
    1892            ;*****************************************************************************
    1893            ;* FUNCTION NAME: wlan_disconnect                                            *
    1894            ;*                                                                           *
    1895            ;*   Regs Modified     : SP,SR,r11,r12,r13,r14,r15                           *
    1896            ;*   Regs Used         : SP,SR,r11,r12,r13,r14,r15                           *
    1897            ;*   Local Frame Size  : 0 Args + 4 Auto + 0 Save = 4 byte                   *
    1898            ;*****************************************************************************
    1899            wlan_disconnect:
    1900            ;* --------------------------------------------------------------------------*
    1901            $C$DW$174       .dwtag  DW_TAG_variable, DW_AT_name("ret")
    1902                    .dwattr $C$DW$174, DW_AT_TI_symbol_name("ret")
    1903                    .dwattr $C$DW$174, DW_AT_type(*$C$DW$T$32)
    1904                    .dwattr $C$DW$174, DW_AT_location[DW_OP_breg1 0]
    1905            ;* r13   assigned to ptr
    1906            $C$DW$175       .dwtag  DW_TAG_variable, DW_AT_name("ptr")
    1907                    .dwattr $C$DW$175, DW_AT_TI_symbol_name("ptr")
    1908                    .dwattr $C$DW$175, DW_AT_type(*$C$DW$T$21)
    1909                    .dwattr $C$DW$175, DW_AT_location[DW_OP_reg13]
    1910                    .dwcfi  cfa_offset, 4
    1911                    .dwcfi  save_reg_to_mem, 16, -4
    1912 000000 8221          SUB.W     #4,SP                 ; [] 
    1913                    .dwcfi  cfa_offset, 8
    1914                    .dwpsn  file "C:/ti/CC3000 SDK/MSP430FR5739/Basic WiFi Application/Basic WiFi Source/Source/CC
    1915 000002 43B1          MOV.W     #-1,0(SP)             ; [] |476| 
         000004 0000 
    1916 000006 43B1          MOV.W     #-1,2(SP)             ; [] |476| 
         000008 0002 
    1917                    .dwpsn  file "C:/ti/CC3000 SDK/MSP430FR5739/Basic WiFi Application/Basic WiFi Source/Source/CC
    1918 00000a 421D          MOV.W     &tSLInformation+6,r13 ; [] |477| 
         00000c 0006!
    1919                    .dwpsn  file "C:/ti/CC3000 SDK/MSP430FR5739/Basic WiFi Application/Basic WiFi Source/Source/CC
    1920 00000e 432C          MOV.W     #2,r12                ; [] |479| 
    1921 000010 434E          MOV.B     #0,r14                ; [] |479| 
    1922            $C$DW$176       .dwtag  DW_TAG_TI_branch
    1923                    .dwattr $C$DW$176, DW_AT_low_pc(0x00)
    1924                    .dwattr $C$DW$176, DW_AT_name("hci_command_send")
    1925                    .dwattr $C$DW$176, DW_AT_TI_call
    1926 000012 13B0!         CALLA     #hci_command_send     ; [] |479| 
         000014 0000 
    1927                                                      ; [] |479| 
    1928                    .dwpsn  file "C:/ti/CC3000 SDK/MSP430FR5739/Basic WiFi Application/Basic WiFi Source/Source/CC
    1929 000016 432C          MOV.W     #2,r12                ; [] |482| 
    1930 000018 01CD          MOVA      SP,r13                ; [] |482| 
    1931            $C$DW$177       .dwtag  DW_TAG_TI_branch
    1932                    .dwattr $C$DW$177, DW_AT_low_pc(0x00)
    1933                    .dwattr $C$DW$177, DW_AT_name("SimpleLinkWaitEvent")
    1934                    .dwattr $C$DW$177, DW_AT_TI_call
    1935 00001a 13B0!         CALLA     #SimpleLinkWaitEvent  ; [] |482| 
         00001c 0000 
    1936                                                      ; [] |482| 
    1937                    .dwpsn  file "C:/ti/CC3000 SDK/MSP430FR5739/Basic WiFi Application/Basic WiFi Source/Source/CC
    1938 00001e 41A2          MOV.W     0(SP),&_Errno+0       ; [] |483| 
         000020 0000!
    1939                    .dwpsn  file "C:/ti/CC3000 SDK/MSP430FR5739/Basic WiFi Application/Basic WiFi Source/Source/CC
MSP430 Assembler PC v4.3.1 Wed Oct 01 17:44:05 2014

Tools Copyright (c) 2003-2014 Texas Instruments Incorporated
C:\Users\x0135533\AppData\Local\Temp\0627211                         PAGE   40

    1940 000022 412C          MOV.W     0(SP),r12             ; [] |485| 
    1941 000024 411D          MOV.W     2(SP),r13             ; [] |485| 
         000026 0002 
    1942 000028 5221          ADD.W     #4,SP                 ; [] 
    1943                    .dwcfi  cfa_offset, 4
    1944            $C$DW$178       .dwtag  DW_TAG_TI_branch
    1945                    .dwattr $C$DW$178, DW_AT_low_pc(0x00)
    1946                    .dwattr $C$DW$178, DW_AT_TI_return
    1947 00002a 0110          RETA      ; [] 
    1948                    ; [] 
    1949                    .dwattr $C$DW$173, DW_AT_TI_end_file("C:/ti/CC3000 SDK/MSP430FR5739/Basic WiFi Application/Bas
    1950                    .dwattr $C$DW$173, DW_AT_TI_end_line(0x1e6)
    1951                    .dwattr $C$DW$173, DW_AT_TI_end_column(0x01)
    1952                    .dwendentry
    1953                    .dwendtag $C$DW$173
    1954            
    1955 000000               .sect   ".text:wlan_connect"
    1956                    .align  2
    1957                    .clink
    1958                    .global wlan_connect
    1959            
    1960            $C$DW$179       .dwtag  DW_TAG_subprogram, DW_AT_name("wlan_connect")
    1961                    .dwattr $C$DW$179, DW_AT_low_pc(wlan_connect)
    1962                    .dwattr $C$DW$179, DW_AT_high_pc(0x00)
    1963                    .dwattr $C$DW$179, DW_AT_TI_symbol_name("wlan_connect")
    1964                    .dwattr $C$DW$179, DW_AT_external
    1965                    .dwattr $C$DW$179, DW_AT_type(*$C$DW$T$32)
    1966                    .dwattr $C$DW$179, DW_AT_TI_begin_file("C:/ti/CC3000 SDK/MSP430FR5739/Basic WiFi Application/B
    1967                    .dwattr $C$DW$179, DW_AT_TI_begin_line(0x178)
    1968                    .dwattr $C$DW$179, DW_AT_TI_begin_column(0x07)
    1969                    .dwattr $C$DW$179, DW_AT_TI_max_frame_size(0x30)
    1970                    .dwpsn  file "C:/ti/CC3000 SDK/MSP430FR5739/Basic WiFi Application/Basic WiFi Source/Source/CC
    1971            
    1972                    .dwfde $C$DW$CIE, wlan_connect
    1973            $C$DW$180       .dwtag  DW_TAG_formal_parameter, DW_AT_name("ulSecType")
    1974                    .dwattr $C$DW$180, DW_AT_TI_symbol_name("ulSecType")
    1975                    .dwattr $C$DW$180, DW_AT_type(*$C$DW$T$25)
    1976                    .dwattr $C$DW$180, DW_AT_location[DW_OP_reg12 DW_OP_piece 2 DW_OP_reg13 DW_OP_piece 2]
    1977            $C$DW$181       .dwtag  DW_TAG_formal_parameter, DW_AT_name("ssid")
    1978                    .dwattr $C$DW$181, DW_AT_TI_symbol_name("ssid")
    1979                    .dwattr $C$DW$181, DW_AT_type(*$C$DW$T$24)
    1980                    .dwattr $C$DW$181, DW_AT_location[DW_OP_reg14]
    1981            $C$DW$182       .dwtag  DW_TAG_formal_parameter, DW_AT_name("ssid_len")
    1982                    .dwattr $C$DW$182, DW_AT_TI_symbol_name("ssid_len")
    1983                    .dwattr $C$DW$182, DW_AT_type(*$C$DW$T$32)
    1984                    .dwattr $C$DW$182, DW_AT_location[DW_OP_reg15 DW_OP_piece 2 DW_OP_piece 2]
    1985            $C$DW$183       .dwtag  DW_TAG_formal_parameter, DW_AT_name("bssid")
    1986                    .dwattr $C$DW$183, DW_AT_TI_symbol_name("bssid")
    1987                    .dwattr $C$DW$183, DW_AT_type(*$C$DW$T$21)
    1988                    .dwattr $C$DW$183, DW_AT_location[DW_OP_breg1 50]
    1989            $C$DW$184       .dwtag  DW_TAG_formal_parameter, DW_AT_name("key")
    1990                    .dwattr $C$DW$184, DW_AT_TI_symbol_name("key")
    1991                    .dwattr $C$DW$184, DW_AT_type(*$C$DW$T$21)
    1992                    .dwattr $C$DW$184, DW_AT_location[DW_OP_breg1 52]
    1993            $C$DW$185       .dwtag  DW_TAG_formal_parameter, DW_AT_name("key_len")
MSP430 Assembler PC v4.3.1 Wed Oct 01 17:44:05 2014

Tools Copyright (c) 2003-2014 Texas Instruments Incorporated
C:\Users\x0135533\AppData\Local\Temp\0627211                         PAGE   41

    1994                    .dwattr $C$DW$185, DW_AT_TI_symbol_name("key_len")
    1995                    .dwattr $C$DW$185, DW_AT_type(*$C$DW$T$32)
    1996                    .dwattr $C$DW$185, DW_AT_location[DW_OP_breg1 54]
    1997            
    1998            ;*****************************************************************************
    1999            ;* FUNCTION NAME: wlan_connect                                               *
    2000            ;*                                                                           *
    2001            ;*   Regs Modified     : SP,SR,r4,r5,r6,r7,r8,r9,r10,r11,r12,r13,r14,r15     *
    2002            ;*   Regs Used         : SP,SR,r4,r5,r6,r7,r8,r9,r10,r11,r12,r13,r14,r15     *
    2003            ;*   Local Frame Size  : 0 Args + 16 Auto + 28 Save = 44 byte                *
    2004            ;*****************************************************************************
    2005            wlan_connect:
    2006            ;* --------------------------------------------------------------------------*
    2007            $C$DW$186       .dwtag  DW_TAG_variable, DW_AT_name("ulSecType")
    2008                    .dwattr $C$DW$186, DW_AT_TI_symbol_name("ulSecType")
    2009                    .dwattr $C$DW$186, DW_AT_type(*$C$DW$T$120)
    2010                    .dwattr $C$DW$186, DW_AT_location[DW_OP_breg1 10]
    2011            $C$DW$187       .dwtag  DW_TAG_variable, DW_AT_name("ssid")
    2012                    .dwattr $C$DW$187, DW_AT_TI_symbol_name("ssid")
    2013                    .dwattr $C$DW$187, DW_AT_type(*$C$DW$T$129)
    2014                    .dwattr $C$DW$187, DW_AT_location[DW_OP_breg1 14]
    2015            ;* r9    assigned to ssid_len
    2016            $C$DW$188       .dwtag  DW_TAG_variable, DW_AT_name("ssid_len")
    2017                    .dwattr $C$DW$188, DW_AT_TI_symbol_name("ssid_len")
    2018                    .dwattr $C$DW$188, DW_AT_type(*$C$DW$T$97)
    2019                    .dwattr $C$DW$188, DW_AT_location[DW_OP_reg9 DW_OP_piece 2 DW_OP_reg7 DW_OP_piece 2]
    2020            ;* r5    assigned to bssid
    2021            $C$DW$189       .dwtag  DW_TAG_variable, DW_AT_name("bssid")
    2022                    .dwattr $C$DW$189, DW_AT_TI_symbol_name("bssid")
    2023                    .dwattr $C$DW$189, DW_AT_type(*$C$DW$T$74)
    2024                    .dwattr $C$DW$189, DW_AT_location[DW_OP_reg5]
    2025            ;* r6    assigned to key
    2026            $C$DW$190       .dwtag  DW_TAG_variable, DW_AT_name("key")
    2027                    .dwattr $C$DW$190, DW_AT_TI_symbol_name("key")
    2028                    .dwattr $C$DW$190, DW_AT_type(*$C$DW$T$74)
    2029                    .dwattr $C$DW$190, DW_AT_location[DW_OP_reg6]
    2030            ;* r10   assigned to key_len
    2031            $C$DW$191       .dwtag  DW_TAG_variable, DW_AT_name("key_len")
    2032                    .dwattr $C$DW$191, DW_AT_TI_symbol_name("key_len")
    2033                    .dwattr $C$DW$191, DW_AT_type(*$C$DW$T$97)
    2034                    .dwattr $C$DW$191, DW_AT_location[DW_OP_reg10 DW_OP_piece 2 DW_OP_reg8 DW_OP_piece 2]
    2035            $C$DW$192       .dwtag  DW_TAG_variable, DW_AT_name("ret")
    2036                    .dwattr $C$DW$192, DW_AT_TI_symbol_name("ret")
    2037                    .dwattr $C$DW$192, DW_AT_type(*$C$DW$T$32)
    2038                    .dwattr $C$DW$192, DW_AT_location[DW_OP_breg1 0]
    2039            ;* r4    assigned to ptr
    2040            $C$DW$193       .dwtag  DW_TAG_variable, DW_AT_name("ptr")
    2041                    .dwattr $C$DW$193, DW_AT_TI_symbol_name("ptr")
    2042                    .dwattr $C$DW$193, DW_AT_type(*$C$DW$T$21)
    2043                    .dwattr $C$DW$193, DW_AT_location[DW_OP_reg4]
    2044            ;* r12   assigned to args
    2045            $C$DW$194       .dwtag  DW_TAG_variable, DW_AT_name("args")
    2046                    .dwattr $C$DW$194, DW_AT_TI_symbol_name("args")
    2047                    .dwattr $C$DW$194, DW_AT_type(*$C$DW$T$21)
    2048                    .dwattr $C$DW$194, DW_AT_location[DW_OP_reg12]
MSP430 Assembler PC v4.3.1 Wed Oct 01 17:44:05 2014

Tools Copyright (c) 2003-2014 Texas Instruments Incorporated
C:\Users\x0135533\AppData\Local\Temp\0627211                         PAGE   42

    2049            ;* r15   assigned to _i
    2050            $C$DW$195       .dwtag  DW_TAG_variable, DW_AT_name("_i")
    2051                    .dwattr $C$DW$195, DW_AT_TI_symbol_name("_i")
    2052                    .dwattr $C$DW$195, DW_AT_type(*$C$DW$T$90)
    2053                    .dwattr $C$DW$195, DW_AT_location[DW_OP_reg15]
    2054            ;* r15   assigned to _i
    2055            $C$DW$196       .dwtag  DW_TAG_variable, DW_AT_name("_i")
    2056                    .dwattr $C$DW$196, DW_AT_TI_symbol_name("_i")
    2057                    .dwattr $C$DW$196, DW_AT_type(*$C$DW$T$90)
    2058                    .dwattr $C$DW$196, DW_AT_location[DW_OP_reg15]
    2059            ;* r15   assigned to $O$L2
    2060            ;* r14   assigned to $O$L1
    2061            ;* r6    assigned to $O$U56
    2062            ;* r14   assigned to $O$U43
    2063            ;* r5    assigned to $O$U35
    2064            ;* r15   assigned to $O$U26
    2065            $C$DW$197       .dwtag  DW_TAG_variable, DW_AT_name("bssid_zero")
    2066                    .dwattr $C$DW$197, DW_AT_TI_symbol_name("bssid_zero")
    2067                    .dwattr $C$DW$197, DW_AT_type(*$C$DW$T$75)
    2068                    .dwattr $C$DW$197, DW_AT_location[DW_OP_breg1 4]
    2069                    .dwcfi  cfa_offset, 4
    2070                    .dwcfi  save_reg_to_mem, 16, -4
    2071 000000 146A          PUSHM.A   #7,r10                ; [] 
    2072                    .dwcfi  save_reg_to_mem, 10, -8
    2073                    .dwcfi  save_reg_to_mem, 9, -12
    2074                    .dwcfi  save_reg_to_mem, 8, -16
    2075                    .dwcfi  save_reg_to_mem, 7, -20
    2076                    .dwcfi  save_reg_to_mem, 6, -24
    2077                    .dwcfi  save_reg_to_mem, 5, -28
    2078                    .dwcfi  save_reg_to_mem, 4, -32
    2079                    .dwcfi  cfa_offset, 32
    2080 000002 8031          SUB.W     #16,SP                ; [] 
         000004 0010 
    2081                    .dwcfi  cfa_offset, 48
    2082 000006 0FC9          MOVA      r15,r9                ; [] |378| 
    2083 000008 4E81          MOV.W     r14,14(SP)            ; [] 
         00000a 000E 
    2084 00000c 4C81          MOV.W     r12,10(SP)            ; [] 
         00000e 000A 
    2085 000010 4D81          MOV.W     r13,12(SP)            ; [] 
         000012 000C 
    2086 000014 411A          MOV.W     54(SP),r10            ; [] |378| 
         000016 0036 
    2087 000018 4118          MOV.W     56(SP),r8             ; [] |378| 
         00001a 0038 
    2088 00001c 4116          MOV.W     52(SP),r6             ; [] |378| 
         00001e 0034 
    2089 000020 4115          MOV.W     50(SP),r5             ; [] |378| 
         000022 0032 
    2090 000024 4117          MOV.W     48(SP),r7             ; [] |378| 
         000026 0030 
    2091                    .dwpsn  file "C:/ti/CC3000 SDK/MSP430FR5739/Basic WiFi Application/Basic WiFi Source/Source/CC
    2092 000028 01CC          MOVA      SP,r12                ; [] |382| 
    2093 00002a 522C          ADD.W     #4,r12                ; [] |382| 
    2094 00002c 430D          MOV.W     #0,r13                ; [] |382| 
MSP430 Assembler PC v4.3.1 Wed Oct 01 17:44:05 2014

Tools Copyright (c) 2003-2014 Texas Instruments Incorporated
C:\Users\x0135533\AppData\Local\Temp\0627211                         PAGE   43

    2095 00002e 403E          MOV.W     #6,r14                ; [] |382| 
         000030 0006 
    2096            $C$DW$198       .dwtag  DW_TAG_TI_branch
    2097                    .dwattr $C$DW$198, DW_AT_low_pc(0x00)
    2098                    .dwattr $C$DW$198, DW_AT_name("memset")
    2099                    .dwattr $C$DW$198, DW_AT_TI_call
    2100 000032 13B0!         CALLA     #memset               ; [] |382| 
         000034 0000 
    2101                                                      ; [] |382| 
    2102                    .dwpsn  file "C:/ti/CC3000 SDK/MSP430FR5739/Basic WiFi Application/Basic WiFi Source/Source/CC
    2103 000036 43B1          MOV.W     #-1,0(SP)             ; [] |384| 
         000038 0000 
    2104 00003a 43B1          MOV.W     #-1,2(SP)             ; [] |384| 
         00003c 0002 
    2105                    .dwpsn  file "C:/ti/CC3000 SDK/MSP430FR5739/Basic WiFi Application/Basic WiFi Source/Source/CC
    2106 00003e 4214          MOV.W     &tSLInformation+6,r4  ; [] |385| 
         000040 0006!
    2107                    .dwpsn  file "C:/ti/CC3000 SDK/MSP430FR5739/Basic WiFi Application/Basic WiFi Source/Source/CC
    2108 000042 403C          MOV.W     #9,r12                ; [] |389| 
         000044 0009 
    2109 000046 540C          ADD.W     r4,r12                ; [] |389| 
    2110 000048 403D          MOV.W     #28,r13               ; [] |389| 
         00004a 001C 
    2111 00004c 430E          MOV.W     #0,r14                ; [] |389| 
    2112            $C$DW$199       .dwtag  DW_TAG_TI_branch
    2113                    .dwattr $C$DW$199, DW_AT_low_pc(0x00)
    2114                    .dwattr $C$DW$199, DW_AT_name("UINT32_TO_STREAM_f")
    2115                    .dwattr $C$DW$199, DW_AT_TI_call
    2116 00004e 13B0!         CALLA     #UINT32_TO_STREAM_f   ; [] |389| 
         000050 0000 
    2117                                                      ; [] |389| 
    2118                    .dwpsn  file "C:/ti/CC3000 SDK/MSP430FR5739/Basic WiFi Application/Basic WiFi Source/Source/CC
    2119 000052 09CD          MOVA      r9,r13                ; [] |390| 
    2120 000054 07CE          MOVA      r7,r14                ; [] |390| 
    2121            $C$DW$200       .dwtag  DW_TAG_TI_branch
    2122                    .dwattr $C$DW$200, DW_AT_low_pc(0x00)
    2123                    .dwattr $C$DW$200, DW_AT_name("UINT32_TO_STREAM_f")
    2124                    .dwattr $C$DW$200, DW_AT_TI_call
    2125 000056 13B0!         CALLA     #UINT32_TO_STREAM_f   ; [] |390| 
         000058 0000 
    2126                                                      ; [] |390| 
    2127 00005a 411D          MOV.W     10(SP),r13            ; [] 
         00005c 000A 
    2128 00005e 411E          MOV.W     12(SP),r14            ; [] 
         000060 000C 
    2129                    .dwpsn  file "C:/ti/CC3000 SDK/MSP430FR5739/Basic WiFi Application/Basic WiFi Source/Source/CC
    2130            $C$DW$201       .dwtag  DW_TAG_TI_branch
    2131                    .dwattr $C$DW$201, DW_AT_low_pc(0x00)
    2132                    .dwattr $C$DW$201, DW_AT_name("UINT32_TO_STREAM_f")
    2133                    .dwattr $C$DW$201, DW_AT_TI_call
    2134 000062 13B0!         CALLA     #UINT32_TO_STREAM_f   ; [] |391| 
         000064 0000 
    2135                                                      ; [] |391| 
    2136                    .dwpsn  file "C:/ti/CC3000 SDK/MSP430FR5739/Basic WiFi Application/Basic WiFi Source/Source/CC
    2137 000066 09CD          MOVA      r9,r13                ; [] |392| 
MSP430 Assembler PC v4.3.1 Wed Oct 01 17:44:05 2014

Tools Copyright (c) 2003-2014 Texas Instruments Incorporated
C:\Users\x0135533\AppData\Local\Temp\0627211                         PAGE   44

    2138 000068 07CE          MOVA      r7,r14                ; [] |392| 
    2139 00006a 503D          ADD.W     #16,r13               ; [] |392| 
         00006c 0010 
    2140 00006e 630E          ADDC.W    #0,r14                ; [] |392| 
    2141            $C$DW$202       .dwtag  DW_TAG_TI_branch
    2142                    .dwattr $C$DW$202, DW_AT_low_pc(0x00)
    2143                    .dwattr $C$DW$202, DW_AT_name("UINT32_TO_STREAM_f")
    2144                    .dwattr $C$DW$202, DW_AT_TI_call
    2145 000070 13B0!         CALLA     #UINT32_TO_STREAM_f   ; [] |392| 
         000072 0000 
    2146                                                      ; [] |392| 
    2147                    .dwpsn  file "C:/ti/CC3000 SDK/MSP430FR5739/Basic WiFi Application/Basic WiFi Source/Source/CC
    2148 000074 0ACD          MOVA      r10,r13               ; [] |393| 
    2149 000076 08CE          MOVA      r8,r14                ; [] |393| 
    2150            $C$DW$203       .dwtag  DW_TAG_TI_branch
    2151                    .dwattr $C$DW$203, DW_AT_low_pc(0x00)
    2152                    .dwattr $C$DW$203, DW_AT_name("UINT32_TO_STREAM_f")
    2153                    .dwattr $C$DW$203, DW_AT_TI_call
    2154 000078 13B0!         CALLA     #UINT32_TO_STREAM_f   ; [] |393| 
         00007a 0000 
    2155                                                      ; [] |393| 
    2156                    .dwpsn  file "C:/ti/CC3000 SDK/MSP430FR5739/Basic WiFi Application/Basic WiFi Source/Source/CC
    2157 00007c 430D          MOV.W     #0,r13                ; [] |394| 
    2158            $C$DW$204       .dwtag  DW_TAG_TI_branch
    2159                    .dwattr $C$DW$204, DW_AT_low_pc(0x00)
    2160                    .dwattr $C$DW$204, DW_AT_name("UINT16_TO_STREAM_f")
    2161                    .dwattr $C$DW$204, DW_AT_TI_call
    2162 00007e 13B0!         CALLA     #UINT16_TO_STREAM_f   ; [] |394| 
         000080 0000 
    2163                                                      ; [] |394| 
    2164                    .dwpsn  file "C:/ti/CC3000 SDK/MSP430FR5739/Basic WiFi Application/Basic WiFi Source/Source/CC
    2165 000082 9305          TST.W     r5                    ; [] |397| 
    2166 000084 200A          JNE       $C$L18                ; [] |397| 
    2167                                                      ; [] |397| 
    2168            ;* --------------------------------------------------------------------------*
    2169                    .dwpsn  file "C:/ti/CC3000 SDK/MSP430FR5739/Basic WiFi Application/Basic WiFi Source/Source/CC
    2170 000086 403E          MOV.W     #6,r14                ; [] |403| 
         000088 0006 
    2171 00008a 01CF          MOVA      SP,r15                ; [] 
    2172 00008c 522F          ADD.W     #4,r15                ; [] 
    2173            ;* --------------------------------------------------------------------------*
    2174            ;*   BEGIN LOOP $C$L17
    2175            ;*
    2176            ;*   Loop source line                : 403
    2177            ;*   Loop closing brace source line  : 403
    2178            ;*   Known Minimum Trip Count        : 6
    2179            ;*   Known Maximum Trip Count        : 6
    2180            ;*   Known Max Trip Count Factor     : 6
    2181            ;* --------------------------------------------------------------------------*
    2182 00008e       $C$L17:    
    2183 00008e 531C          ADD.W     #1,r12                ; [] |403| 
    2184 000090 4FFC          MOV.B     @r15+,-1(r12)         ; [] |403| 
         000092 FFFF 
    2185 000094 831E          SUB.W     #1,r14                ; [] |403| 
    2186 000096 23FB          JNE       $C$L17                ; [] |403| 
MSP430 Assembler PC v4.3.1 Wed Oct 01 17:44:05 2014

Tools Copyright (c) 2003-2014 Texas Instruments Incorporated
C:\Users\x0135533\AppData\Local\Temp\0627211                         PAGE   45

    2187                                                      ; [] |403| 
    2188            ;* --------------------------------------------------------------------------*
    2189 000098 3C07          JMP       $C$L20                ; [] |403| 
    2190                                                      ; [] |403| 
    2191            ;* --------------------------------------------------------------------------*
    2192 00009a       $C$L18:    
    2193                    .dwpsn  file "C:/ti/CC3000 SDK/MSP430FR5739/Basic WiFi Application/Basic WiFi Source/Source/CC
    2194 00009a 403F          MOV.W     #6,r15                ; [] |399| 
         00009c 0006 
    2195            ;* --------------------------------------------------------------------------*
    2196            ;*   BEGIN LOOP $C$L19
    2197            ;*
    2198            ;*   Loop source line                : 399
    2199            ;*   Loop closing brace source line  : 399
    2200            ;*   Known Minimum Trip Count        : 6
    2201            ;*   Known Maximum Trip Count        : 6
    2202            ;*   Known Max Trip Count Factor     : 6
    2203            ;* --------------------------------------------------------------------------*
    2204 00009e       $C$L19:    
    2205 00009e 531C          ADD.W     #1,r12                ; [] |399| 
    2206 0000a0 45FC          MOV.B     @r5+,-1(r12)          ; [] |399| 
         0000a2 FFFF 
    2207 0000a4 831F          SUB.W     #1,r15                ; [] |399| 
    2208 0000a6 23FB          JNE       $C$L19                ; [] |399| 
    2209                                                      ; [] |399| 
    2210            ;* --------------------------------------------------------------------------*
    2211 0000a8       $C$L20:    
    2212                    .dwpsn  file "C:/ti/CC3000 SDK/MSP430FR5739/Basic WiFi Application/Basic WiFi Source/Source/CC
    2213 0000a8 9307          TST.W     r7                    ; [] |406| 
    2214 0000aa 3813          JL        $C$L23                ; [] |406| 
    2215                                                      ; [] |406| 
    2216            ;* --------------------------------------------------------------------------*
    2217 0000ac 2002          JNE       $C$L21                ; [] |406| 
    2218                                                      ; [] |406| 
    2219            ;* --------------------------------------------------------------------------*
    2220 0000ae 9319          CMP.W     #1,r9                 ; [] |406| 
    2221 0000b0 2810          JLO       $C$L23                ; [] |406| 
    2222                                                      ; [] |406| 
    2223            ;* --------------------------------------------------------------------------*
    2224 0000b2       $C$L21:    
    2225 0000b2 411E          MOV.W     14(SP),r14            ; [] 
         0000b4 000E 
    2226 0000b6 430F          MOV.W     #0,r15                ; [] |406| 
    2227            ;* --------------------------------------------------------------------------*
    2228            ;*   BEGIN LOOP $C$L22
    2229            ;*
    2230            ;*   Loop source line                : 406
    2231            ;*   Loop closing brace source line  : 406
    2232            ;*   Known Minimum Trip Count        : 1
    2233            ;*   Known Maximum Trip Count        : 4294967295
    2234            ;*   Known Max Trip Count Factor     : 1
    2235            ;* --------------------------------------------------------------------------*
    2236 0000b8       $C$L22:    
    2237 0000b8 531C          ADD.W     #1,r12                ; [] |406| 
    2238 0000ba 4EFC          MOV.B     @r14+,-1(r12)         ; [] |406| 
MSP430 Assembler PC v4.3.1 Wed Oct 01 17:44:05 2014

Tools Copyright (c) 2003-2014 Texas Instruments Incorporated
C:\Users\x0135533\AppData\Local\Temp\0627211                         PAGE   46

         0000bc FFFF 
    2239 0000be 531F          ADD.W     #1,r15                ; [] |406| 
    2240 0000c0 B03F          BIT.W     #32768,r15            ; [] |406| 
         0000c2 8000 
    2241 0000c4 7D0D          SUBC.W    r13,r13               ; [] |406| 
    2242 0000c6 E33D          INV.W     r13                   ; [] |406| 
    2243 0000c8 970D          CMP.W     r7,r13                ; [] |406| 
    2244 0000ca 3BF6          JL        $C$L22                ; [] |406| 
    2245                                                      ; [] |406| 
    2246            ;* --------------------------------------------------------------------------*
    2247 0000cc 2002          JNE       $C$L23                ; [] |406| 
    2248                                                      ; [] |406| 
    2249            ;* --------------------------------------------------------------------------*
    2250 0000ce 990F          CMP.W     r9,r15                ; [] |406| 
    2251 0000d0 2BF3          JLO       $C$L22                ; [] |406| 
    2252                                                      ; [] |406| 
    2253            ;* --------------------------------------------------------------------------*
    2254 0000d2       $C$L23:    
    2255                    .dwpsn  file "C:/ti/CC3000 SDK/MSP430FR5739/Basic WiFi Application/Basic WiFi Source/Source/CC
    2256 0000d2 9308          TST.W     r8                    ; [] |408| 
    2257 0000d4 2002          JNE       $C$L24                ; [] |408| 
    2258                                                      ; [] |408| 
    2259            ;* --------------------------------------------------------------------------*
    2260 0000d6 930A          TST.W     r10                   ; [] |408| 
    2261 0000d8 2415          JEQ       $C$L27                ; [] |408| 
    2262                                                      ; [] |408| 
    2263            ;* --------------------------------------------------------------------------*
    2264 0000da       $C$L24:    
    2265 0000da 9306          TST.W     r6                    ; [] |408| 
    2266 0000dc 2413          JEQ       $C$L27                ; [] |408| 
    2267                                                      ; [] |408| 
    2268            ;* --------------------------------------------------------------------------*
    2269 0000de 9308          TST.W     r8                    ; [] |408| 
    2270 0000e0 3811          JL        $C$L27                ; [] |408| 
    2271                                                      ; [] |408| 
    2272            ;* --------------------------------------------------------------------------*
    2273 0000e2 2002          JNE       $C$L25                ; [] |408| 
    2274                                                      ; [] |408| 
    2275            ;* --------------------------------------------------------------------------*
    2276 0000e4 931A          CMP.W     #1,r10                ; [] |408| 
    2277 0000e6 280E          JLO       $C$L27                ; [] |408| 
    2278                                                      ; [] |408| 
    2279            ;* --------------------------------------------------------------------------*
    2280 0000e8       $C$L25:    
    2281                    .dwpsn  file "C:/ti/CC3000 SDK/MSP430FR5739/Basic WiFi Application/Basic WiFi Source/Source/CC
    2282 0000e8 430F          MOV.W     #0,r15                ; [] |410| 
    2283            ;* --------------------------------------------------------------------------*
    2284            ;*   BEGIN LOOP $C$L26
    2285            ;*
    2286            ;*   Loop source line                : 410
    2287            ;*   Loop closing brace source line  : 410
    2288            ;*   Known Minimum Trip Count        : 1
    2289            ;*   Known Maximum Trip Count        : 4294967295
    2290            ;*   Known Max Trip Count Factor     : 1
    2291            ;* --------------------------------------------------------------------------*
MSP430 Assembler PC v4.3.1 Wed Oct 01 17:44:05 2014

Tools Copyright (c) 2003-2014 Texas Instruments Incorporated
C:\Users\x0135533\AppData\Local\Temp\0627211                         PAGE   47

    2292 0000ea       $C$L26:    
    2293 0000ea 531C          ADD.W     #1,r12                ; [] |410| 
    2294 0000ec 46FC          MOV.B     @r6+,-1(r12)          ; [] |410| 
         0000ee FFFF 
    2295 0000f0 531F          ADD.W     #1,r15                ; [] |410| 
    2296 0000f2 B03F          BIT.W     #32768,r15            ; [] |410| 
         0000f4 8000 
    2297 0000f6 7E0E          SUBC.W    r14,r14               ; [] |410| 
    2298 0000f8 E33E          INV.W     r14                   ; [] |410| 
    2299 0000fa 980E          CMP.W     r8,r14                ; [] |410| 
    2300 0000fc 3BF6          JL        $C$L26                ; [] |410| 
    2301                                                      ; [] |410| 
    2302            ;* --------------------------------------------------------------------------*
    2303 0000fe 2002          JNE       $C$L27                ; [] |410| 
    2304                                                      ; [] |410| 
    2305            ;* --------------------------------------------------------------------------*
    2306 000100 9A0F          CMP.W     r10,r15               ; [] |410| 
    2307 000102 2BF3          JLO       $C$L26                ; [] |410| 
    2308                                                      ; [] |410| 
    2309            ;* --------------------------------------------------------------------------*
    2310 000104       $C$L27:    
    2311                    .dwpsn  file "C:/ti/CC3000 SDK/MSP430FR5739/Basic WiFi Application/Basic WiFi Source/Source/CC
    2312 000104 09CE          MOVA      r9,r14                ; [] |414| 
    2313 000106 5A4E          ADD.B     r10,r14               ; [] |414| 
    2314 000108 507E          ADD.B     #28,r14               ; [] |414| 
         00010a 001C 
    2315 00010c 431C          MOV.W     #1,r12                ; [] |414| 
    2316 00010e 04CD          MOVA      r4,r13                ; [] |414| 
    2317            $C$DW$205       .dwtag  DW_TAG_TI_branch
    2318                    .dwattr $C$DW$205, DW_AT_low_pc(0x00)
    2319                    .dwattr $C$DW$205, DW_AT_name("hci_command_send")
    2320                    .dwattr $C$DW$205, DW_AT_TI_call
    2321 000110 13B0!         CALLA     #hci_command_send     ; [] |414| 
         000112 0000 
    2322                                                      ; [] |414| 
    2323                    .dwpsn  file "C:/ti/CC3000 SDK/MSP430FR5739/Basic WiFi Application/Basic WiFi Source/Source/CC
    2324 000114 431C          MOV.W     #1,r12                ; [] |418| 
    2325 000116 01CD          MOVA      SP,r13                ; [] |418| 
    2326            $C$DW$206       .dwtag  DW_TAG_TI_branch
    2327                    .dwattr $C$DW$206, DW_AT_low_pc(0x00)
    2328                    .dwattr $C$DW$206, DW_AT_name("SimpleLinkWaitEvent")
    2329                    .dwattr $C$DW$206, DW_AT_TI_call
    2330 000118 13B0!         CALLA     #SimpleLinkWaitEvent  ; [] |418| 
         00011a 0000 
    2331                                                      ; [] |418| 
    2332                    .dwpsn  file "C:/ti/CC3000 SDK/MSP430FR5739/Basic WiFi Application/Basic WiFi Source/Source/CC
    2333 00011c 41A2          MOV.W     0(SP),&_Errno+0       ; [] |419| 
         00011e 0000!
    2334                    .dwpsn  file "C:/ti/CC3000 SDK/MSP430FR5739/Basic WiFi Application/Basic WiFi Source/Source/CC
    2335 000120 412C          MOV.W     0(SP),r12             ; [] |421| 
    2336 000122 411D          MOV.W     2(SP),r13             ; [] |421| 
         000124 0002 
    2337 000126 5031          ADD.W     #16,SP                ; [] 
         000128 0010 
    2338                    .dwcfi  cfa_offset, 32
MSP430 Assembler PC v4.3.1 Wed Oct 01 17:44:05 2014

Tools Copyright (c) 2003-2014 Texas Instruments Incorporated
C:\Users\x0135533\AppData\Local\Temp\0627211                         PAGE   48

    2339 00012a 1664          POPM.A    #7,r10                ; [] 
    2340                    .dwcfi  restore_reg, 4
    2341                    .dwcfi  restore_reg, 5
    2342                    .dwcfi  restore_reg, 6
    2343                    .dwcfi  restore_reg, 7
    2344                    .dwcfi  restore_reg, 8
    2345                    .dwcfi  restore_reg, 9
    2346                    .dwcfi  restore_reg, 10
    2347                    .dwcfi  cfa_offset, 4
    2348            $C$DW$207       .dwtag  DW_TAG_TI_branch
    2349                    .dwattr $C$DW$207, DW_AT_low_pc(0x00)
    2350                    .dwattr $C$DW$207, DW_AT_TI_return
    2351 00012c 0110          RETA      ; [] 
    2352                    ; [] 
    2353                    .dwattr $C$DW$179, DW_AT_TI_end_file("C:/ti/CC3000 SDK/MSP430FR5739/Basic WiFi Application/Bas
    2354                    .dwattr $C$DW$179, DW_AT_TI_end_line(0x1a6)
    2355                    .dwattr $C$DW$179, DW_AT_TI_end_column(0x01)
    2356                    .dwendentry
    2357                    .dwendtag $C$DW$179
    2358            
    2359 000000               .sect   ".text:wlan_add_profile"
    2360                    .align  2
    2361                    .clink
    2362                    .global wlan_add_profile
    2363            
    2364            $C$DW$208       .dwtag  DW_TAG_subprogram, DW_AT_name("wlan_add_profile")
    2365                    .dwattr $C$DW$208, DW_AT_low_pc(wlan_add_profile)
    2366                    .dwattr $C$DW$208, DW_AT_high_pc(0x00)
    2367                    .dwattr $C$DW$208, DW_AT_TI_symbol_name("wlan_add_profile")
    2368                    .dwattr $C$DW$208, DW_AT_external
    2369                    .dwattr $C$DW$208, DW_AT_type(*$C$DW$T$32)
    2370                    .dwattr $C$DW$208, DW_AT_TI_begin_file("C:/ti/CC3000 SDK/MSP430FR5739/Basic WiFi Application/B
    2371                    .dwattr $C$DW$208, DW_AT_TI_begin_line(0x244)
    2372                    .dwattr $C$DW$208, DW_AT_TI_begin_column(0x07)
    2373                    .dwattr $C$DW$208, DW_AT_TI_max_frame_size(0x40)
    2374                    .dwpsn  file "C:/ti/CC3000 SDK/MSP430FR5739/Basic WiFi Application/Basic WiFi Source/Source/CC
    2375            
    2376                    .dwfde $C$DW$CIE, wlan_add_profile
    2377            $C$DW$209       .dwtag  DW_TAG_formal_parameter, DW_AT_name("ulSecType")
    2378                    .dwattr $C$DW$209, DW_AT_TI_symbol_name("ulSecType")
    2379                    .dwattr $C$DW$209, DW_AT_type(*$C$DW$T$25)
    2380                    .dwattr $C$DW$209, DW_AT_location[DW_OP_reg12 DW_OP_piece 2 DW_OP_reg13 DW_OP_piece 2]
    2381            $C$DW$210       .dwtag  DW_TAG_formal_parameter, DW_AT_name("ucSsid")
    2382                    .dwattr $C$DW$210, DW_AT_TI_symbol_name("ucSsid")
    2383                    .dwattr $C$DW$210, DW_AT_type(*$C$DW$T$21)
    2384                    .dwattr $C$DW$210, DW_AT_location[DW_OP_reg14]
    2385            $C$DW$211       .dwtag  DW_TAG_formal_parameter, DW_AT_name("ulSsidLen")
    2386                    .dwattr $C$DW$211, DW_AT_TI_symbol_name("ulSsidLen")
    2387                    .dwattr $C$DW$211, DW_AT_type(*$C$DW$T$25)
    2388                    .dwattr $C$DW$211, DW_AT_location[DW_OP_reg15 DW_OP_piece 2 DW_OP_piece 2]
    2389            $C$DW$212       .dwtag  DW_TAG_formal_parameter, DW_AT_name("ucBssid")
    2390                    .dwattr $C$DW$212, DW_AT_TI_symbol_name("ucBssid")
    2391                    .dwattr $C$DW$212, DW_AT_type(*$C$DW$T$21)
    2392                    .dwattr $C$DW$212, DW_AT_location[DW_OP_breg1 66]
    2393            $C$DW$213       .dwtag  DW_TAG_formal_parameter, DW_AT_name("ulPriority")
MSP430 Assembler PC v4.3.1 Wed Oct 01 17:44:05 2014

Tools Copyright (c) 2003-2014 Texas Instruments Incorporated
C:\Users\x0135533\AppData\Local\Temp\0627211                         PAGE   49

    2394                    .dwattr $C$DW$213, DW_AT_TI_symbol_name("ulPriority")
    2395                    .dwattr $C$DW$213, DW_AT_type(*$C$DW$T$25)
    2396                    .dwattr $C$DW$213, DW_AT_location[DW_OP_breg1 68]
    2397            $C$DW$214       .dwtag  DW_TAG_formal_parameter, DW_AT_name("ulPairwiseCipher_Or_TxKeyLen")
    2398                    .dwattr $C$DW$214, DW_AT_TI_symbol_name("ulPairwiseCipher_Or_TxKeyLen")
    2399                    .dwattr $C$DW$214, DW_AT_type(*$C$DW$T$25)
    2400                    .dwattr $C$DW$214, DW_AT_location[DW_OP_breg1 72]
    2401            $C$DW$215       .dwtag  DW_TAG_formal_parameter, DW_AT_name("ulGroupCipher_TxKeyIndex")
    2402                    .dwattr $C$DW$215, DW_AT_TI_symbol_name("ulGroupCipher_TxKeyIndex")
    2403                    .dwattr $C$DW$215, DW_AT_type(*$C$DW$T$25)
    2404                    .dwattr $C$DW$215, DW_AT_location[DW_OP_breg1 76]
    2405            $C$DW$216       .dwtag  DW_TAG_formal_parameter, DW_AT_name("ulKeyMgmt")
    2406                    .dwattr $C$DW$216, DW_AT_TI_symbol_name("ulKeyMgmt")
    2407                    .dwattr $C$DW$216, DW_AT_type(*$C$DW$T$25)
    2408                    .dwattr $C$DW$216, DW_AT_location[DW_OP_breg1 80]
    2409            $C$DW$217       .dwtag  DW_TAG_formal_parameter, DW_AT_name("ucPf_OrKey")
    2410                    .dwattr $C$DW$217, DW_AT_TI_symbol_name("ucPf_OrKey")
    2411                    .dwattr $C$DW$217, DW_AT_type(*$C$DW$T$21)
    2412                    .dwattr $C$DW$217, DW_AT_location[DW_OP_breg1 84]
    2413            $C$DW$218       .dwtag  DW_TAG_formal_parameter, DW_AT_name("ulPassPhraseLen")
    2414                    .dwattr $C$DW$218, DW_AT_TI_symbol_name("ulPassPhraseLen")
    2415                    .dwattr $C$DW$218, DW_AT_type(*$C$DW$T$25)
    2416                    .dwattr $C$DW$218, DW_AT_location[DW_OP_breg1 86]
    2417            
    2418            ;*****************************************************************************
    2419            ;* FUNCTION NAME: wlan_add_profile                                           *
    2420            ;*                                                                           *
    2421            ;*   Regs Modified     : SP,SR,r4,r5,r6,r7,r8,r9,r10,r11,r12,r13,r14,r15     *
    2422            ;*   Regs Used         : SP,SR,r4,r5,r6,r7,r8,r9,r10,r11,r12,r13,r14,r15     *
    2423            ;*   Local Frame Size  : 0 Args + 32 Auto + 28 Save = 60 byte                *
    2424            ;*****************************************************************************
    2425            wlan_add_profile:
    2426            ;* --------------------------------------------------------------------------*
    2427            ;* r11   assigned to i
    2428            $C$DW$219       .dwtag  DW_TAG_variable, DW_AT_name("i")
    2429                    .dwattr $C$DW$219, DW_AT_TI_symbol_name("i")
    2430                    .dwattr $C$DW$219, DW_AT_type(*$C$DW$T$10)
    2431                    .dwattr $C$DW$219, DW_AT_location[DW_OP_reg11]
    2432            $C$DW$220       .dwtag  DW_TAG_variable, DW_AT_name("ulSecType")
    2433                    .dwattr $C$DW$220, DW_AT_TI_symbol_name("ulSecType")
    2434                    .dwattr $C$DW$220, DW_AT_type(*$C$DW$T$120)
    2435                    .dwattr $C$DW$220, DW_AT_location[DW_OP_breg1 10]
    2436            ;* r9    assigned to ucSsid
    2437            $C$DW$221       .dwtag  DW_TAG_variable, DW_AT_name("ucSsid")
    2438                    .dwattr $C$DW$221, DW_AT_TI_symbol_name("ucSsid")
    2439                    .dwattr $C$DW$221, DW_AT_type(*$C$DW$T$74)
    2440                    .dwattr $C$DW$221, DW_AT_location[DW_OP_reg9]
    2441            ;* r8    assigned to ulSsidLen
    2442            $C$DW$222       .dwtag  DW_TAG_variable, DW_AT_name("ulSsidLen")
    2443                    .dwattr $C$DW$222, DW_AT_TI_symbol_name("ulSsidLen")
    2444                    .dwattr $C$DW$222, DW_AT_type(*$C$DW$T$120)
    2445                    .dwattr $C$DW$222, DW_AT_location[DW_OP_reg8 DW_OP_piece 2 DW_OP_reg7 DW_OP_piece 2]
    2446            ;* r10   assigned to ucBssid
    2447            $C$DW$223       .dwtag  DW_TAG_variable, DW_AT_name("ucBssid")
    2448                    .dwattr $C$DW$223, DW_AT_TI_symbol_name("ucBssid")
MSP430 Assembler PC v4.3.1 Wed Oct 01 17:44:05 2014

Tools Copyright (c) 2003-2014 Texas Instruments Incorporated
C:\Users\x0135533\AppData\Local\Temp\0627211                         PAGE   50

    2449                    .dwattr $C$DW$223, DW_AT_type(*$C$DW$T$74)
    2450                    .dwattr $C$DW$223, DW_AT_location[DW_OP_reg10]
    2451            $C$DW$224       .dwtag  DW_TAG_variable, DW_AT_name("ulPriority")
    2452                    .dwattr $C$DW$224, DW_AT_TI_symbol_name("ulPriority")
    2453                    .dwattr $C$DW$224, DW_AT_type(*$C$DW$T$120)
    2454                    .dwattr $C$DW$224, DW_AT_location[DW_OP_breg1 14]
    2455            ;* r6    assigned to ulPairwiseCipher_Or_TxKeyLen
    2456            $C$DW$225       .dwtag  DW_TAG_variable, DW_AT_name("ulPairwiseCipher_Or_TxKeyLen")
    2457                    .dwattr $C$DW$225, DW_AT_TI_symbol_name("ulPairwiseCipher_Or_TxKeyLen")
    2458                    .dwattr $C$DW$225, DW_AT_type(*$C$DW$T$120)
    2459                    .dwattr $C$DW$225, DW_AT_location[DW_OP_reg6 DW_OP_piece 2 DW_OP_reg5 DW_OP_piece 2]
    2460            $C$DW$226       .dwtag  DW_TAG_variable, DW_AT_name("ulGroupCipher_TxKeyIndex")
    2461                    .dwattr $C$DW$226, DW_AT_TI_symbol_name("ulGroupCipher_TxKeyIndex")
    2462                    .dwattr $C$DW$226, DW_AT_type(*$C$DW$T$120)
    2463                    .dwattr $C$DW$226, DW_AT_location[DW_OP_breg1 18]
    2464            $C$DW$227       .dwtag  DW_TAG_variable, DW_AT_name("ulKeyMgmt")
    2465                    .dwattr $C$DW$227, DW_AT_TI_symbol_name("ulKeyMgmt")
    2466                    .dwattr $C$DW$227, DW_AT_type(*$C$DW$T$120)
    2467                    .dwattr $C$DW$227, DW_AT_location[DW_OP_breg1 22]
    2468            $C$DW$228       .dwtag  DW_TAG_variable, DW_AT_name("ucPf_OrKey")
    2469                    .dwattr $C$DW$228, DW_AT_TI_symbol_name("ucPf_OrKey")
    2470                    .dwattr $C$DW$228, DW_AT_type(*$C$DW$T$74)
    2471                    .dwattr $C$DW$228, DW_AT_location[DW_OP_breg1 26]
    2472            ;* r4    assigned to ulPassPhraseLen
    2473            $C$DW$229       .dwtag  DW_TAG_variable, DW_AT_name("ulPassPhraseLen")
    2474                    .dwattr $C$DW$229, DW_AT_TI_symbol_name("ulPassPhraseLen")
    2475                    .dwattr $C$DW$229, DW_AT_type(*$C$DW$T$120)
    2476                    .dwattr $C$DW$229, DW_AT_location[DW_OP_reg4 DW_OP_piece 2 DW_OP_piece 2]
    2477            ;* r14   assigned to arg_len
    2478            $C$DW$230       .dwtag  DW_TAG_variable, DW_AT_name("arg_len")
    2479                    .dwattr $C$DW$230, DW_AT_TI_symbol_name("arg_len")
    2480                    .dwattr $C$DW$230, DW_AT_type(*$C$DW$T$19)
    2481                    .dwattr $C$DW$230, DW_AT_location[DW_OP_reg14]
    2482            $C$DW$231       .dwtag  DW_TAG_variable, DW_AT_name("ret")
    2483                    .dwattr $C$DW$231, DW_AT_TI_symbol_name("ret")
    2484                    .dwattr $C$DW$231, DW_AT_type(*$C$DW$T$32)
    2485                    .dwattr $C$DW$231, DW_AT_location[DW_OP_breg1 0]
    2486            $C$DW$232       .dwtag  DW_TAG_variable, DW_AT_name("ptr")
    2487                    .dwattr $C$DW$232, DW_AT_TI_symbol_name("ptr")
    2488                    .dwattr $C$DW$232, DW_AT_type(*$C$DW$T$21)
    2489                    .dwattr $C$DW$232, DW_AT_location[DW_OP_breg1 30]
    2490            ;* r15   assigned to args
    2491            $C$DW$233       .dwtag  DW_TAG_variable, DW_AT_name("args")
    2492                    .dwattr $C$DW$233, DW_AT_TI_symbol_name("args")
    2493                    .dwattr $C$DW$233, DW_AT_type(*$C$DW$T$21)
    2494                    .dwattr $C$DW$233, DW_AT_location[DW_OP_reg15]
    2495            ;* r14   assigned to _i
    2496            $C$DW$234       .dwtag  DW_TAG_variable, DW_AT_name("_i")
    2497                    .dwattr $C$DW$234, DW_AT_TI_symbol_name("_i")
    2498                    .dwattr $C$DW$234, DW_AT_type(*$C$DW$T$90)
    2499                    .dwattr $C$DW$234, DW_AT_location[DW_OP_reg14]
    2500            ;* r14   assigned to _i
    2501            $C$DW$235       .dwtag  DW_TAG_variable, DW_AT_name("_i")
    2502                    .dwattr $C$DW$235, DW_AT_TI_symbol_name("_i")
    2503                    .dwattr $C$DW$235, DW_AT_type(*$C$DW$T$90)
MSP430 Assembler PC v4.3.1 Wed Oct 01 17:44:05 2014

Tools Copyright (c) 2003-2014 Texas Instruments Incorporated
C:\Users\x0135533\AppData\Local\Temp\0627211                         PAGE   51

    2504                    .dwattr $C$DW$235, DW_AT_location[DW_OP_reg14]
    2505            ;* r14   assigned to _i
    2506            $C$DW$236       .dwtag  DW_TAG_variable, DW_AT_name("_i")
    2507                    .dwattr $C$DW$236, DW_AT_TI_symbol_name("_i")
    2508                    .dwattr $C$DW$236, DW_AT_type(*$C$DW$T$90)
    2509                    .dwattr $C$DW$236, DW_AT_location[DW_OP_reg14]
    2510            ;* r14   assigned to _i
    2511            $C$DW$237       .dwtag  DW_TAG_variable, DW_AT_name("_i")
    2512                    .dwattr $C$DW$237, DW_AT_TI_symbol_name("_i")
    2513                    .dwattr $C$DW$237, DW_AT_type(*$C$DW$T$90)
    2514                    .dwattr $C$DW$237, DW_AT_location[DW_OP_reg14]
    2515            ;* r14   assigned to _i
    2516            $C$DW$238       .dwtag  DW_TAG_variable, DW_AT_name("_i")
    2517                    .dwattr $C$DW$238, DW_AT_TI_symbol_name("_i")
    2518                    .dwattr $C$DW$238, DW_AT_type(*$C$DW$T$90)
    2519                    .dwattr $C$DW$238, DW_AT_location[DW_OP_reg14]
    2520            ;* r14   assigned to $O$L7
    2521            ;* r13   assigned to $O$L6
    2522            ;* r14   assigned to $O$L4
    2523            ;* r13   assigned to $O$L3
    2524            ;* r14   assigned to $O$L2
    2525            ;* r13   assigned to $O$L1
    2526            ;* r9    assigned to $O$U120
    2527            ;* r10   assigned to $O$U114
    2528            ;* r14   assigned to $O$U108
    2529            ;* r12   assigned to $O$U91
    2530            ;* r9    assigned to $O$U77
    2531            ;* r10   assigned to $O$U69
    2532            ;* r14   assigned to $O$U63
    2533            ;* r13   assigned to $O$U51
    2534            ;* r9    assigned to $O$U42
    2535            ;* r10   assigned to $O$U32
    2536            ;* r14   assigned to $O$U23
    2537            $C$DW$239       .dwtag  DW_TAG_variable, DW_AT_name("bssid_zero")
    2538                    .dwattr $C$DW$239, DW_AT_TI_symbol_name("bssid_zero")
    2539                    .dwattr $C$DW$239, DW_AT_type(*$C$DW$T$75)
    2540                    .dwattr $C$DW$239, DW_AT_location[DW_OP_breg1 4]
    2541                    .dwcfi  cfa_offset, 4
    2542                    .dwcfi  save_reg_to_mem, 16, -4
    2543 000000 146A          PUSHM.A   #7,r10                ; [] 
    2544                    .dwcfi  save_reg_to_mem, 10, -8
    2545                    .dwcfi  save_reg_to_mem, 9, -12
    2546                    .dwcfi  save_reg_to_mem, 8, -16
    2547                    .dwcfi  save_reg_to_mem, 7, -20
    2548                    .dwcfi  save_reg_to_mem, 6, -24
    2549                    .dwcfi  save_reg_to_mem, 5, -28
    2550                    .dwcfi  save_reg_to_mem, 4, -32
    2551                    .dwcfi  cfa_offset, 32
    2552 000002 8031          SUB.W     #32,SP                ; [] 
         000004 0020 
    2553                    .dwcfi  cfa_offset, 64
    2554 000006 0FC8          MOVA      r15,r8                ; [] |590| 
    2555 000008 0EC9          MOVA      r14,r9                ; [] |590| 
    2556 00000a 4C81          MOV.W     r12,10(SP)            ; [] 
         00000c 000A 
MSP430 Assembler PC v4.3.1 Wed Oct 01 17:44:05 2014

Tools Copyright (c) 2003-2014 Texas Instruments Incorporated
C:\Users\x0135533\AppData\Local\Temp\0627211                         PAGE   52

    2557 00000e 4D81          MOV.W     r13,12(SP)            ; [] 
         000010 000C 
    2558 000012 4114          MOV.W     86(SP),r4             ; [] |590| 
         000014 0056 
    2559 000016 4191          MOV.W     88(SP),28(SP)         ; [] |590| 
         000018 0058 
         00001a 001C 
    2560 00001c 4191          MOV.W     84(SP),26(SP)         ; [] |590| 
         00001e 0054 
         000020 001A 
    2561 000022 4191          MOV.W     80(SP),22(SP)         ; [] |590| 
         000024 0050 
         000026 0016 
    2562 000028 4191          MOV.W     82(SP),24(SP)         ; [] |590| 
         00002a 0052 
         00002c 0018 
    2563 00002e 4191          MOV.W     76(SP),18(SP)         ; [] |590| 
         000030 004C 
         000032 0012 
    2564 000034 4191          MOV.W     78(SP),20(SP)         ; [] |590| 
         000036 004E 
         000038 0014 
    2565 00003a 4116          MOV.W     72(SP),r6             ; [] |590| 
         00003c 0048 
    2566 00003e 4115          MOV.W     74(SP),r5             ; [] |590| 
         000040 004A 
    2567 000042 4191          MOV.W     68(SP),14(SP)         ; [] |590| 
         000044 0044 
         000046 000E 
    2568 000048 4191          MOV.W     70(SP),16(SP)         ; [] |590| 
         00004a 0046 
         00004c 0010 
    2569 00004e 411A          MOV.W     66(SP),r10            ; [] |590| 
         000050 0042 
    2570 000052 4117          MOV.W     64(SP),r7             ; [] |590| 
         000054 0040 
    2571                    .dwpsn  file "C:/ti/CC3000 SDK/MSP430FR5739/Basic WiFi Application/Basic WiFi Source/Source/CC
    2572 000056 01CC          MOVA      SP,r12                ; [] |596| 
    2573 000058 522C          ADD.W     #4,r12                ; [] |596| 
    2574 00005a 430D          MOV.W     #0,r13                ; [] |596| 
    2575 00005c 403E          MOV.W     #6,r14                ; [] |596| 
         00005e 0006 
    2576            $C$DW$240       .dwtag  DW_TAG_TI_branch
    2577                    .dwattr $C$DW$240, DW_AT_low_pc(0x00)
    2578                    .dwattr $C$DW$240, DW_AT_name("memset")
    2579                    .dwattr $C$DW$240, DW_AT_TI_call
    2580 000060 13B0!         CALLA     #memset               ; [] |596| 
         000062 0000 
    2581                                                      ; [] |596| 
    2582                    .dwpsn  file "C:/ti/CC3000 SDK/MSP430FR5739/Basic WiFi Application/Basic WiFi Source/Source/CC
    2583 000064 4291          MOV.W     &tSLInformation+6,30(SP) ; [] |598| 
         000066 0006!
         000068 001E 
    2584 00006a 411C          MOV.W     30(SP),r12            ; [] 
         00006c 001E 
MSP430 Assembler PC v4.3.1 Wed Oct 01 17:44:05 2014

Tools Copyright (c) 2003-2014 Texas Instruments Incorporated
C:\Users\x0135533\AppData\Local\Temp\0627211                         PAGE   53

    2585                    .dwpsn  file "C:/ti/CC3000 SDK/MSP430FR5739/Basic WiFi Application/Basic WiFi Source/Source/CC
    2586 00006e 503C          ADD.W     #9,r12                ; [] |601| 
         000070 0009 
    2587 000072 411D          MOV.W     10(SP),r13            ; [] 
         000074 000A 
    2588 000076 411E          MOV.W     12(SP),r14            ; [] 
         000078 000C 
    2589            $C$DW$241       .dwtag  DW_TAG_TI_branch
    2590                    .dwattr $C$DW$241, DW_AT_low_pc(0x00)
    2591                    .dwattr $C$DW$241, DW_AT_name("UINT32_TO_STREAM_f")
    2592                    .dwattr $C$DW$241, DW_AT_TI_call
    2593 00007a 13B0!         CALLA     #UINT32_TO_STREAM_f   ; [] |601| 
         00007c 0000 
    2594                                                      ; [] |601| 
    2595 00007e 411E          MOV.W     10(SP),r14            ; [] 
         000080 000A 
    2596 000082 411D          MOV.W     12(SP),r13            ; [] 
         000084 000C 
    2597                    .dwpsn  file "C:/ti/CC3000 SDK/MSP430FR5739/Basic WiFi Application/Basic WiFi Source/Source/CC
    2598 000086 930D          TST.W     r13                   ; [] |604| 
    2599 000088 2002          JNE       $C$L28                ; [] |604| 
    2600                                                      ; [] |604| 
    2601            ;* --------------------------------------------------------------------------*
    2602 00008a 930E          TST.W     r14                   ; [] |604| 
    2603 00008c 24A4          JEQ       $C$L52                ; [] |604| 
    2604                                                      ; [] |604| 
    2605            ;* --------------------------------------------------------------------------*
    2606 00008e       $C$L28:    
    2607 00008e 831E          SUB.W     #1,r14                ; [] |604| 
    2608 000090 730D          SUBC.W    #0,r13                ; [] |604| 
    2609 000092 2002          JNE       $C$L29                ; [] |604| 
    2610                                                      ; [] |604| 
    2611            ;* --------------------------------------------------------------------------*
    2612 000094 930E          TST.W     r14                   ; [] |604| 
    2613 000096 2456          JEQ       $C$L40                ; [] |604| 
    2614                                                      ; [] |604| 
    2615            ;* --------------------------------------------------------------------------*
    2616 000098       $C$L29:    
    2617 000098 831E          SUB.W     #1,r14                ; [] |604| 
    2618 00009a 730D          SUBC.W    #0,r13                ; [] |604| 
    2619 00009c 20BF          JNE       $C$L60                ; [] |604| 
    2620                                                      ; [] |604| 
    2621            ;* --------------------------------------------------------------------------*
    2622 00009e 932E          CMP.W     #2,r14                ; [] |604| 
    2623 0000a0 2CBD          JHS       $C$L60                ; [] |604| 
    2624                                                      ; [] |604| 
    2625            ;* --------------------------------------------------------------------------*
    2626                    .dwpsn  file "C:/ti/CC3000 SDK/MSP430FR5739/Basic WiFi Application/Basic WiFi Source/Source/CC
    2627 0000a2 403D          MOV.W     #40,r13               ; [] |665| 
         0000a4 0028 
    2628            $C$DW$242       .dwtag  DW_TAG_TI_branch
    2629                    .dwattr $C$DW$242, DW_AT_low_pc(0x00)
    2630                    .dwattr $C$DW$242, DW_AT_name("$abproc1")
    2631                    .dwattr $C$DW$242, DW_AT_TI_call
    2632 0000a6 13B0!         CALLA     #$abproc1             ; [] 
MSP430 Assembler PC v4.3.1 Wed Oct 01 17:44:05 2014

Tools Copyright (c) 2003-2014 Texas Instruments Incorporated
C:\Users\x0135533\AppData\Local\Temp\0627211                         PAGE   54

         0000a8 025C 
    2633                                                      ; [] 
    2634                    .dwpsn  file "C:/ti/CC3000 SDK/MSP430FR5739/Basic WiFi Application/Basic WiFi Source/Source/CC
    2635 0000aa 2008          JNE       $C$L31                ; [] |668| 
    2636                                                      ; [] |668| 
    2637            ;* --------------------------------------------------------------------------*
    2638                    .dwpsn  file "C:/ti/CC3000 SDK/MSP430FR5739/Basic WiFi Application/Basic WiFi Source/Source/CC
    2639 0000ac 403D          MOV.W     #6,r13                ; [] |674| 
         0000ae 0006 
    2640 0000b0 01CE          MOVA      SP,r14                ; [] 
    2641 0000b2 522E          ADD.W     #4,r14                ; [] 
    2642            ;* --------------------------------------------------------------------------*
    2643            ;*   BEGIN LOOP $C$L30
    2644            ;*
    2645            ;*   Loop source line                : 674
    2646            ;*   Loop closing brace source line  : 674
    2647            ;*   Known Minimum Trip Count        : 6
    2648            ;*   Known Maximum Trip Count        : 6
    2649            ;*   Known Max Trip Count Factor     : 6
    2650            ;* --------------------------------------------------------------------------*
    2651            $C$L30:    
    2652            $C$DW$243       .dwtag  DW_TAG_TI_branch
    2653                    .dwattr $C$DW$243, DW_AT_low_pc(0x00)
    2654                    .dwattr $C$DW$243, DW_AT_name("$abproc4")
    2655                    .dwattr $C$DW$243, DW_AT_TI_call
    2656 0000b4 13B0!         CALLA     #$abproc4             ; [] 
         0000b6 029A 
    2657                                                      ; [] 
    2658 0000b8 23FD          JNE       $C$L30                ; [] |674| 
    2659                                                      ; [] |674| 
    2660            ;* --------------------------------------------------------------------------*
    2661 0000ba 3C05          JMP       $C$L33                ; [] |674| 
    2662                                                      ; [] |674| 
    2663            ;* --------------------------------------------------------------------------*
    2664 0000bc       $C$L31:    
    2665                    .dwpsn  file "C:/ti/CC3000 SDK/MSP430FR5739/Basic WiFi Application/Basic WiFi Source/Source/CC
    2666 0000bc 403E          MOV.W     #6,r14                ; [] |670| 
         0000be 0006 
    2667            ;* --------------------------------------------------------------------------*
    2668            ;*   BEGIN LOOP $C$L32
    2669            ;*
    2670            ;*   Loop source line                : 670
    2671            ;*   Loop closing brace source line  : 670
    2672            ;*   Known Minimum Trip Count        : 6
    2673            ;*   Known Maximum Trip Count        : 6
    2674            ;*   Known Max Trip Count Factor     : 6
    2675            ;* --------------------------------------------------------------------------*
    2676            $C$L32:    
    2677            $C$DW$244       .dwtag  DW_TAG_TI_branch
    2678                    .dwattr $C$DW$244, DW_AT_low_pc(0x00)
    2679                    .dwattr $C$DW$244, DW_AT_name("$abproc5")
    2680                    .dwattr $C$DW$244, DW_AT_TI_call
    2681 0000c0 13B0!         CALLA     #$abproc5             ; [] 
         0000c2 02A4 
    2682                                                      ; [] 
MSP430 Assembler PC v4.3.1 Wed Oct 01 17:44:05 2014

Tools Copyright (c) 2003-2014 Texas Instruments Incorporated
C:\Users\x0135533\AppData\Local\Temp\0627211                         PAGE   55

    2683 0000c4 23FD          JNE       $C$L32                ; [] |670| 
    2684                                                      ; [] |670| 
    2685            ;* --------------------------------------------------------------------------*
    2686 0000c6       $C$L33:    
    2687                    .dwpsn  file "C:/ti/CC3000 SDK/MSP430FR5739/Basic WiFi Application/Basic WiFi Source/Source/CC
    2688 0000c6 0FCC          MOVA      r15,r12               ; [] |676| 
    2689 0000c8 411D          MOV.W     14(SP),r13            ; [] 
         0000ca 000E 
    2690 0000cc 411E          MOV.W     16(SP),r14            ; [] 
         0000ce 0010 
    2691            $C$DW$245       .dwtag  DW_TAG_TI_branch
    2692                    .dwattr $C$DW$245, DW_AT_low_pc(0x00)
    2693                    .dwattr $C$DW$245, DW_AT_name("$abproc0")
    2694                    .dwattr $C$DW$245, DW_AT_TI_call
    2695 0000d0 13B0!         CALLA     #$abproc0             ; [] 
         0000d2 0242 
    2696                                                      ; [] 
    2697 0000d4 411D          MOV.W     22(SP),r13            ; [] 
         0000d6 0016 
    2698 0000d8 411E          MOV.W     24(SP),r14            ; [] 
         0000da 0018 
    2699                    .dwpsn  file "C:/ti/CC3000 SDK/MSP430FR5739/Basic WiFi Application/Basic WiFi Source/Source/CC
    2700            $C$DW$246       .dwtag  DW_TAG_TI_branch
    2701                    .dwattr $C$DW$246, DW_AT_low_pc(0x00)
    2702                    .dwattr $C$DW$246, DW_AT_name("UINT32_TO_STREAM_f")
    2703                    .dwattr $C$DW$246, DW_AT_TI_call
    2704 0000dc 13B0!         CALLA     #UINT32_TO_STREAM_f   ; [] |679| 
         0000de 0000 
    2705                                                      ; [] |679| 
    2706                    .dwpsn  file "C:/ti/CC3000 SDK/MSP430FR5739/Basic WiFi Application/Basic WiFi Source/Source/CC
    2707 0000e0 08CD          MOVA      r8,r13                ; [] |680| 
    2708 0000e2 07CE          MOVA      r7,r14                ; [] |680| 
    2709 0000e4 523D          ADD.W     #8,r13                ; [] |680| 
    2710 0000e6 630E          ADDC.W    #0,r14                ; [] |680| 
    2711            $C$DW$247       .dwtag  DW_TAG_TI_branch
    2712                    .dwattr $C$DW$247, DW_AT_low_pc(0x00)
    2713                    .dwattr $C$DW$247, DW_AT_name("UINT32_TO_STREAM_f")
    2714                    .dwattr $C$DW$247, DW_AT_TI_call
    2715 0000e8 13B0!         CALLA     #UINT32_TO_STREAM_f   ; [] |680| 
         0000ea 0000 
    2716                                                      ; [] |680| 
    2717                    .dwpsn  file "C:/ti/CC3000 SDK/MSP430FR5739/Basic WiFi Application/Basic WiFi Source/Source/CC
    2718 0000ec 04CD          MOVA      r4,r13                ; [] |681| 
    2719 0000ee 411E          MOV.W     28(SP),r14            ; [] 
         0000f0 001C 
    2720            $C$DW$248       .dwtag  DW_TAG_TI_branch
    2721                    .dwattr $C$DW$248, DW_AT_low_pc(0x00)
    2722                    .dwattr $C$DW$248, DW_AT_name("UINT32_TO_STREAM_f")
    2723                    .dwattr $C$DW$248, DW_AT_TI_call
    2724 0000f2 13B0!         CALLA     #UINT32_TO_STREAM_f   ; [] |681| 
         0000f4 0000 
    2725                                                      ; [] |681| 
    2726 0000f6 0CCF          MOVA      r12,r15               ; [] |681| 
    2727                    .dwpsn  file "C:/ti/CC3000 SDK/MSP430FR5739/Basic WiFi Application/Basic WiFi Source/Source/CC
    2728 0000f8 9307          TST.W     r7                    ; [] |682| 
MSP430 Assembler PC v4.3.1 Wed Oct 01 17:44:05 2014

Tools Copyright (c) 2003-2014 Texas Instruments Incorporated
C:\Users\x0135533\AppData\Local\Temp\0627211                         PAGE   56

    2729 0000fa 2002          JNE       $C$L34                ; [] |682| 
    2730                                                      ; [] |682| 
    2731            ;* --------------------------------------------------------------------------*
    2732 0000fc 9308          TST.W     r8                    ; [] |682| 
    2733 0000fe 2407          JEQ       $C$L36                ; [] |682| 
    2734                                                      ; [] |682| 
    2735            ;* --------------------------------------------------------------------------*
    2736 000100       $C$L34:    
    2737 000100 430E          MOV.W     #0,r14                ; [] |682| 
    2738            ;* --------------------------------------------------------------------------*
    2739            ;*   BEGIN LOOP $C$L35
    2740            ;*
    2741            ;*   Loop source line                : 682
    2742            ;*   Loop closing brace source line  : 682
    2743            ;*   Known Minimum Trip Count        : 1
    2744            ;*   Known Maximum Trip Count        : 4294967295
    2745            ;*   Known Max Trip Count Factor     : 1
    2746            ;* --------------------------------------------------------------------------*
    2747            $C$L35:    
    2748            $C$DW$249       .dwtag  DW_TAG_TI_branch
    2749                    .dwattr $C$DW$249, DW_AT_low_pc(0x00)
    2750                    .dwattr $C$DW$249, DW_AT_name("$abproc2")
    2751                    .dwattr $C$DW$249, DW_AT_TI_call
    2752 000102 13B0!         CALLA     #$abproc2             ; [] 
         000104 0276 
    2753                                                      ; [] 
    2754 000106 2BFD          JLO       $C$L35                ; [] |682| 
    2755                                                      ; [] |682| 
    2756            ;* --------------------------------------------------------------------------*
    2757 000108 2002          JNE       $C$L36                ; [] |682| 
    2758                                                      ; [] |682| 
    2759            ;* --------------------------------------------------------------------------*
    2760 00010a 980E          CMP.W     r8,r14                ; [] |682| 
    2761 00010c 2BFA          JLO       $C$L35                ; [] |682| 
    2762                                                      ; [] |682| 
    2763            ;* --------------------------------------------------------------------------*
    2764 00010e       $C$L36:    
    2765                    .dwpsn  file "C:/ti/CC3000 SDK/MSP430FR5739/Basic WiFi Application/Basic WiFi Source/Source/CC
    2766 00010e 9381          TST.W     28(SP)                ; [] |683| 
         000110 001C 
    2767 000112 2002          JNE       $C$L37                ; [] |683| 
    2768                                                      ; [] |683| 
    2769            ;* --------------------------------------------------------------------------*
    2770 000114 9304          TST.W     r4                    ; [] |683| 
    2771 000116 2411          JEQ       $C$L39                ; [] |683| 
    2772                                                      ; [] |683| 
    2773            ;* --------------------------------------------------------------------------*
    2774 000118       $C$L37:    
    2775 000118 411D          MOV.W     26(SP),r13            ; [] 
         00011a 001A 
    2776 00011c 430E          MOV.W     #0,r14                ; [] |683| 
    2777            ;* --------------------------------------------------------------------------*
    2778            ;*   BEGIN LOOP $C$L38
    2779            ;*
    2780            ;*   Loop source line                : 683
MSP430 Assembler PC v4.3.1 Wed Oct 01 17:44:05 2014

Tools Copyright (c) 2003-2014 Texas Instruments Incorporated
C:\Users\x0135533\AppData\Local\Temp\0627211                         PAGE   57

    2781            ;*   Loop closing brace source line  : 683
    2782            ;*   Known Minimum Trip Count        : 1
    2783            ;*   Known Maximum Trip Count        : 4294967295
    2784            ;*   Known Max Trip Count Factor     : 1
    2785            ;* --------------------------------------------------------------------------*
    2786 00011e       $C$L38:    
    2787 00011e 531F          ADD.W     #1,r15                ; [] |683| 
    2788 000120 4DFF          MOV.B     @r13+,-1(r15)         ; [] |683| 
         000122 FFFF 
    2789 000124 531E          ADD.W     #1,r14                ; [] |683| 
    2790 000126 B03E          BIT.W     #32768,r14            ; [] |683| 
         000128 8000 
    2791 00012a 7B0B          SUBC.W    r11,r11               ; [] |683| 
    2792 00012c E33B          INV.W     r11                   ; [] |683| 
    2793 00012e 911B          CMP.W     28(SP),r11            ; [] |683| 
         000130 001C 
    2794 000132 2BF5          JLO       $C$L38                ; [] |683| 
    2795                                                      ; [] |683| 
    2796            ;* --------------------------------------------------------------------------*
    2797 000134 2002          JNE       $C$L39                ; [] |683| 
    2798                                                      ; [] |683| 
    2799            ;* --------------------------------------------------------------------------*
    2800 000136 940E          CMP.W     r4,r14                ; [] |683| 
    2801 000138 2BF2          JLO       $C$L38                ; [] |683| 
    2802                                                      ; [] |683| 
    2803            ;* --------------------------------------------------------------------------*
    2804 00013a       $C$L39:    
    2805                    .dwpsn  file "C:/ti/CC3000 SDK/MSP430FR5739/Basic WiFi Application/Basic WiFi Source/Source/CC
    2806 00013a 08CE          MOVA      r8,r14                ; [] |685| 
    2807 00013c 540E          ADD.W     r4,r14                ; [] |685| 
    2808 00013e 503E          ADD.W     #44,r14               ; [] |685| 
         000140 002C 
    2809                    .dwpsn  file "C:/ti/CC3000 SDK/MSP430FR5739/Basic WiFi Application/Basic WiFi Source/Source/CC
    2810 000142 3C6C          JMP       $C$L60                ; [] |688| 
    2811                                                      ; [] |688| 
    2812            ;* --------------------------------------------------------------------------*
    2813 000144       $C$L40:    
    2814                    .dwpsn  file "C:/ti/CC3000 SDK/MSP430FR5739/Basic WiFi Application/Basic WiFi Source/Source/CC
    2815 000144 403D          MOV.W     #32,r13               ; [] |630| 
         000146 0020 
    2816            $C$DW$250       .dwtag  DW_TAG_TI_branch
    2817                    .dwattr $C$DW$250, DW_AT_low_pc(0x00)
    2818                    .dwattr $C$DW$250, DW_AT_name("$abproc1")
    2819                    .dwattr $C$DW$250, DW_AT_TI_call
    2820 000148 13B0!         CALLA     #$abproc1             ; [] 
         00014a 025C 
    2821                                                      ; [] 
    2822                    .dwpsn  file "C:/ti/CC3000 SDK/MSP430FR5739/Basic WiFi Application/Basic WiFi Source/Source/CC
    2823 00014c 2008          JNE       $C$L42                ; [] |633| 
    2824                                                      ; [] |633| 
    2825            ;* --------------------------------------------------------------------------*
    2826                    .dwpsn  file "C:/ti/CC3000 SDK/MSP430FR5739/Basic WiFi Application/Basic WiFi Source/Source/CC
    2827 00014e 403D          MOV.W     #6,r13                ; [] |639| 
         000150 0006 
    2828 000152 01CE          MOVA      SP,r14                ; [] 
MSP430 Assembler PC v4.3.1 Wed Oct 01 17:44:05 2014

Tools Copyright (c) 2003-2014 Texas Instruments Incorporated
C:\Users\x0135533\AppData\Local\Temp\0627211                         PAGE   58

    2829 000154 522E          ADD.W     #4,r14                ; [] 
    2830            ;* --------------------------------------------------------------------------*
    2831            ;*   BEGIN LOOP $C$L41
    2832            ;*
    2833            ;*   Loop source line                : 639
    2834            ;*   Loop closing brace source line  : 639
    2835            ;*   Known Minimum Trip Count        : 6
    2836            ;*   Known Maximum Trip Count        : 6
    2837            ;*   Known Max Trip Count Factor     : 6
    2838            ;* --------------------------------------------------------------------------*
    2839            $C$L41:    
    2840            $C$DW$251       .dwtag  DW_TAG_TI_branch
    2841                    .dwattr $C$DW$251, DW_AT_low_pc(0x00)
    2842                    .dwattr $C$DW$251, DW_AT_name("$abproc4")
    2843                    .dwattr $C$DW$251, DW_AT_TI_call
    2844 000156 13B0!         CALLA     #$abproc4             ; [] 
         000158 029A 
    2845                                                      ; [] 
    2846 00015a 23FD          JNE       $C$L41                ; [] |639| 
    2847                                                      ; [] |639| 
    2848            ;* --------------------------------------------------------------------------*
    2849 00015c 3C05          JMP       $C$L44                ; [] |639| 
    2850                                                      ; [] |639| 
    2851            ;* --------------------------------------------------------------------------*
    2852 00015e       $C$L42:    
    2853                    .dwpsn  file "C:/ti/CC3000 SDK/MSP430FR5739/Basic WiFi Application/Basic WiFi Source/Source/CC
    2854 00015e 403E          MOV.W     #6,r14                ; [] |635| 
         000160 0006 
    2855            ;* --------------------------------------------------------------------------*
    2856            ;*   BEGIN LOOP $C$L43
    2857            ;*
    2858            ;*   Loop source line                : 635
    2859            ;*   Loop closing brace source line  : 635
    2860            ;*   Known Minimum Trip Count        : 6
    2861            ;*   Known Maximum Trip Count        : 6
    2862            ;*   Known Max Trip Count Factor     : 6
    2863            ;* --------------------------------------------------------------------------*
    2864            $C$L43:    
    2865            $C$DW$252       .dwtag  DW_TAG_TI_branch
    2866                    .dwattr $C$DW$252, DW_AT_low_pc(0x00)
    2867                    .dwattr $C$DW$252, DW_AT_name("$abproc5")
    2868                    .dwattr $C$DW$252, DW_AT_TI_call
    2869 000162 13B0!         CALLA     #$abproc5             ; [] 
         000164 02A4 
    2870                                                      ; [] 
    2871 000166 23FD          JNE       $C$L43                ; [] |635| 
    2872                                                      ; [] |635| 
    2873            ;* --------------------------------------------------------------------------*
    2874            $C$L44:    
    2875            $C$DW$253       .dwtag  DW_TAG_TI_branch
    2876                    .dwattr $C$DW$253, DW_AT_low_pc(0x00)
    2877                    .dwattr $C$DW$253, DW_AT_name("$abproc3")
    2878                    .dwattr $C$DW$253, DW_AT_TI_call
    2879 000168 13B0!         CALLA     #$abproc3             ; [] 
         00016a 028A 
MSP430 Assembler PC v4.3.1 Wed Oct 01 17:44:05 2014

Tools Copyright (c) 2003-2014 Texas Instruments Incorporated
C:\Users\x0135533\AppData\Local\Temp\0627211                         PAGE   59

    2880                                                      ; [] 
    2881                    .dwpsn  file "C:/ti/CC3000 SDK/MSP430FR5739/Basic WiFi Application/Basic WiFi Source/Source/CC
    2882 00016c 08CD          MOVA      r8,r13                ; [] |642| 
    2883 00016e 07CE          MOVA      r7,r14                ; [] |642| 
    2884 000170 503D          ADD.W     #12,r13               ; [] |642| 
         000172 000C 
    2885 000174 630E          ADDC.W    #0,r14                ; [] |642| 
    2886            $C$DW$254       .dwtag  DW_TAG_TI_branch
    2887                    .dwattr $C$DW$254, DW_AT_low_pc(0x00)
    2888                    .dwattr $C$DW$254, DW_AT_name("$abproc0")
    2889                    .dwattr $C$DW$254, DW_AT_TI_call
    2890 000176 13B0!         CALLA     #$abproc0             ; [] 
         000178 0242 
    2891                                                      ; [] 
    2892                    .dwpsn  file "C:/ti/CC3000 SDK/MSP430FR5739/Basic WiFi Application/Basic WiFi Source/Source/CC
    2893 00017a 0CCF          MOVA      r12,r15               ; [] |644| 
    2894                    .dwpsn  file "C:/ti/CC3000 SDK/MSP430FR5739/Basic WiFi Application/Basic WiFi Source/Source/CC
    2895 00017c 9307          TST.W     r7                    ; [] |645| 
    2896 00017e 2002          JNE       $C$L45                ; [] |645| 
    2897                                                      ; [] |645| 
    2898            ;* --------------------------------------------------------------------------*
    2899 000180 9308          TST.W     r8                    ; [] |645| 
    2900 000182 2407          JEQ       $C$L47                ; [] |645| 
    2901                                                      ; [] |645| 
    2902            ;* --------------------------------------------------------------------------*
    2903 000184       $C$L45:    
    2904 000184 430E          MOV.W     #0,r14                ; [] |645| 
    2905            ;* --------------------------------------------------------------------------*
    2906            ;*   BEGIN LOOP $C$L46
    2907            ;*
    2908            ;*   Loop source line                : 645
    2909            ;*   Loop closing brace source line  : 645
    2910            ;*   Known Minimum Trip Count        : 1
    2911            ;*   Known Maximum Trip Count        : 4294967295
    2912            ;*   Known Max Trip Count Factor     : 1
    2913            ;* --------------------------------------------------------------------------*
    2914            $C$L46:    
    2915            $C$DW$255       .dwtag  DW_TAG_TI_branch
    2916                    .dwattr $C$DW$255, DW_AT_low_pc(0x00)
    2917                    .dwattr $C$DW$255, DW_AT_name("$abproc2")
    2918                    .dwattr $C$DW$255, DW_AT_TI_call
    2919 000186 13B0!         CALLA     #$abproc2             ; [] 
         000188 0276 
    2920                                                      ; [] 
    2921 00018a 2BFD          JLO       $C$L46                ; [] |645| 
    2922                                                      ; [] |645| 
    2923            ;* --------------------------------------------------------------------------*
    2924 00018c 2002          JNE       $C$L47                ; [] |645| 
    2925                                                      ; [] |645| 
    2926            ;* --------------------------------------------------------------------------*
    2927 00018e 980E          CMP.W     r8,r14                ; [] |645| 
    2928 000190 2BFA          JLO       $C$L46                ; [] |645| 
    2929                                                      ; [] |645| 
    2930            ;* --------------------------------------------------------------------------*
    2931 000192       $C$L47:    
MSP430 Assembler PC v4.3.1 Wed Oct 01 17:44:05 2014

Tools Copyright (c) 2003-2014 Texas Instruments Incorporated
C:\Users\x0135533\AppData\Local\Temp\0627211                         PAGE   60

    2932 000192 430B          MOV.W     #0,r11                ; [] 
    2933            ;* --------------------------------------------------------------------------*
    2934            ;*   BEGIN LOOP $C$L48
    2935            ;*
    2936            ;*   Loop source line                : 647
    2937            ;*   Loop closing brace source line  : 652
    2938            ;*   Known Minimum Trip Count        : 4
    2939            ;*   Known Maximum Trip Count        : 4
    2940            ;*   Known Max Trip Count Factor     : 4
    2941            ;* --------------------------------------------------------------------------*
    2942 000194       $C$L48:    
    2943                    .dwpsn  file "C:/ti/CC3000 SDK/MSP430FR5739/Basic WiFi Application/Basic WiFi Source/Source/CC
    2944 000194 9305          TST.W     r5                    ; [] |651| 
    2945 000196 2002          JNE       $C$L49                ; [] |651| 
    2946                                                      ; [] |651| 
    2947            ;* --------------------------------------------------------------------------*
    2948 000198 9306          TST.W     r6                    ; [] |651| 
    2949 00019a 2414          JEQ       $C$L51                ; [] |651| 
    2950                                                      ; [] |651| 
    2951            ;* --------------------------------------------------------------------------*
    2952 00019c       $C$L49:    
    2953 00019c 06CC          MOVA      r6,r12                ; [] 
    2954 00019e 0BCD          MOVA      r11,r13               ; [] 
    2955            $C$DW$256       .dwtag  DW_TAG_TI_branch
    2956                    .dwattr $C$DW$256, DW_AT_low_pc(0x00)
    2957                    .dwattr $C$DW$256, DW_AT_name("__mpyi")
    2958                    .dwattr $C$DW$256, DW_AT_TI_call
    2959 0001a0 13B0!         CALLA     #__mpyi               ; [] 
         0001a2 0000 
    2960                                                      ; [] 
    2961 0001a4 511C          ADD.W     26(SP),r12            ; [] 
         0001a6 001A 
    2962 0001a8 430E          MOV.W     #0,r14                ; [] |651| 
    2963            ;* --------------------------------------------------------------------------*
    2964            ;*   BEGIN LOOP $C$L50
    2965            ;*
    2966            ;*   Loop source line                : 651
    2967            ;*   Loop closing brace source line  : 651
    2968            ;*   Known Minimum Trip Count        : 1
    2969            ;*   Known Maximum Trip Count        : 4294967295
    2970            ;*   Known Max Trip Count Factor     : 1
    2971            ;* --------------------------------------------------------------------------*
    2972 0001aa       $C$L50:    
    2973 0001aa 531F          ADD.W     #1,r15                ; [] |651| 
    2974 0001ac 4CFF          MOV.B     @r12+,-1(r15)         ; [] |651| 
         0001ae FFFF 
    2975 0001b0 531E          ADD.W     #1,r14                ; [] |651| 
    2976 0001b2 B03E          BIT.W     #32768,r14            ; [] |651| 
         0001b4 8000 
    2977 0001b6 7D0D          SUBC.W    r13,r13               ; [] |651| 
    2978 0001b8 E33D          INV.W     r13                   ; [] |651| 
    2979 0001ba 950D          CMP.W     r5,r13                ; [] |651| 
    2980 0001bc 2BF6          JLO       $C$L50                ; [] |651| 
    2981                                                      ; [] |651| 
    2982            ;* --------------------------------------------------------------------------*
MSP430 Assembler PC v4.3.1 Wed Oct 01 17:44:05 2014

Tools Copyright (c) 2003-2014 Texas Instruments Incorporated
C:\Users\x0135533\AppData\Local\Temp\0627211                         PAGE   61

    2983 0001be 2002          JNE       $C$L51                ; [] |651| 
    2984                                                      ; [] |651| 
    2985            ;* --------------------------------------------------------------------------*
    2986 0001c0 960E          CMP.W     r6,r14                ; [] |651| 
    2987 0001c2 2BF3          JLO       $C$L50                ; [] |651| 
    2988                                                      ; [] |651| 
    2989            ;* --------------------------------------------------------------------------*
    2990 0001c4       $C$L51:    
    2991                    .dwpsn  file "C:/ti/CC3000 SDK/MSP430FR5739/Basic WiFi Application/Basic WiFi Source/Source/CC
    2992 0001c4 531B          ADD.W     #1,r11                ; [] |647| 
    2993 0001c6 922B          CMP.W     #4,r11                ; [] |647| 
    2994 0001c8 3BE5          JL        $C$L48                ; [] |647| 
    2995                                                      ; [] |647| 
    2996            ;* --------------------------------------------------------------------------*
    2997                    .dwpsn  file "C:/ti/CC3000 SDK/MSP430FR5739/Basic WiFi Application/Basic WiFi Source/Source/CC
    2998 0001ca 06CE          MOVA      r6,r14                ; [] |654| 
    2999 0001cc 065E          RLAM.W    #2,r14                ; [] |654| 
    3000 0001ce 580E          ADD.W     r8,r14                ; [] |654| 
    3001 0001d0 503E          ADD.W     #36,r14               ; [] |654| 
         0001d2 0024 
    3002                    .dwpsn  file "C:/ti/CC3000 SDK/MSP430FR5739/Basic WiFi Application/Basic WiFi Source/Source/CC
    3003 0001d4 3C23          JMP       $C$L60                ; [] |658| 
    3004                                                      ; [] |658| 
    3005            ;* --------------------------------------------------------------------------*
    3006 0001d6       $C$L52:    
    3007                    .dwpsn  file "C:/ti/CC3000 SDK/MSP430FR5739/Basic WiFi Application/Basic WiFi Source/Source/CC
    3008 0001d6 403D          MOV.W     #20,r13               ; [] |609| 
         0001d8 0014 
    3009            $C$DW$257       .dwtag  DW_TAG_TI_branch
    3010                    .dwattr $C$DW$257, DW_AT_low_pc(0x00)
    3011                    .dwattr $C$DW$257, DW_AT_name("$abproc1")
    3012                    .dwattr $C$DW$257, DW_AT_TI_call
    3013 0001da 13B0!         CALLA     #$abproc1             ; [] 
         0001dc 025C 
    3014                                                      ; [] 
    3015                    .dwpsn  file "C:/ti/CC3000 SDK/MSP430FR5739/Basic WiFi Application/Basic WiFi Source/Source/CC
    3016 0001de 2008          JNE       $C$L54                ; [] |612| 
    3017                                                      ; [] |612| 
    3018            ;* --------------------------------------------------------------------------*
    3019                    .dwpsn  file "C:/ti/CC3000 SDK/MSP430FR5739/Basic WiFi Application/Basic WiFi Source/Source/CC
    3020 0001e0 403D          MOV.W     #6,r13                ; [] |618| 
         0001e2 0006 
    3021 0001e4 01CE          MOVA      SP,r14                ; [] 
    3022 0001e6 522E          ADD.W     #4,r14                ; [] 
    3023            ;* --------------------------------------------------------------------------*
    3024            ;*   BEGIN LOOP $C$L53
    3025            ;*
    3026            ;*   Loop source line                : 618
    3027            ;*   Loop closing brace source line  : 618
    3028            ;*   Known Minimum Trip Count        : 6
    3029            ;*   Known Maximum Trip Count        : 6
    3030            ;*   Known Max Trip Count Factor     : 6
    3031            ;* --------------------------------------------------------------------------*
    3032            $C$L53:    
    3033            $C$DW$258       .dwtag  DW_TAG_TI_branch
MSP430 Assembler PC v4.3.1 Wed Oct 01 17:44:05 2014

Tools Copyright (c) 2003-2014 Texas Instruments Incorporated
C:\Users\x0135533\AppData\Local\Temp\0627211                         PAGE   62

    3034                    .dwattr $C$DW$258, DW_AT_low_pc(0x00)
    3035                    .dwattr $C$DW$258, DW_AT_name("$abproc4")
    3036                    .dwattr $C$DW$258, DW_AT_TI_call
    3037 0001e8 13B0!         CALLA     #$abproc4             ; [] 
         0001ea 029A 
    3038                                                      ; [] 
    3039 0001ec 23FD          JNE       $C$L53                ; [] |618| 
    3040                                                      ; [] |618| 
    3041            ;* --------------------------------------------------------------------------*
    3042 0001ee 3C05          JMP       $C$L56                ; [] |618| 
    3043                                                      ; [] |618| 
    3044            ;* --------------------------------------------------------------------------*
    3045 0001f0       $C$L54:    
    3046                    .dwpsn  file "C:/ti/CC3000 SDK/MSP430FR5739/Basic WiFi Application/Basic WiFi Source/Source/CC
    3047 0001f0 403E          MOV.W     #6,r14                ; [] |614| 
         0001f2 0006 
    3048            ;* --------------------------------------------------------------------------*
    3049            ;*   BEGIN LOOP $C$L55
    3050            ;*
    3051            ;*   Loop source line                : 614
    3052            ;*   Loop closing brace source line  : 614
    3053            ;*   Known Minimum Trip Count        : 6
    3054            ;*   Known Maximum Trip Count        : 6
    3055            ;*   Known Max Trip Count Factor     : 6
    3056            ;* --------------------------------------------------------------------------*
    3057            $C$L55:    
    3058            $C$DW$259       .dwtag  DW_TAG_TI_branch
    3059                    .dwattr $C$DW$259, DW_AT_low_pc(0x00)
    3060                    .dwattr $C$DW$259, DW_AT_name("$abproc5")
    3061                    .dwattr $C$DW$259, DW_AT_TI_call
    3062 0001f4 13B0!         CALLA     #$abproc5             ; [] 
         0001f6 02A4 
    3063                                                      ; [] 
    3064 0001f8 23FD          JNE       $C$L55                ; [] |614| 
    3065                                                      ; [] |614| 
    3066            ;* --------------------------------------------------------------------------*
    3067            $C$L56:    
    3068            $C$DW$260       .dwtag  DW_TAG_TI_branch
    3069                    .dwattr $C$DW$260, DW_AT_low_pc(0x00)
    3070                    .dwattr $C$DW$260, DW_AT_name("$abproc3")
    3071                    .dwattr $C$DW$260, DW_AT_TI_call
    3072 0001fa 13B0!         CALLA     #$abproc3             ; [] 
         0001fc 028A 
    3073                                                      ; [] 
    3074                    .dwpsn  file "C:/ti/CC3000 SDK/MSP430FR5739/Basic WiFi Application/Basic WiFi Source/Source/CC
    3075 0001fe 0CCF          MOVA      r12,r15               ; [] |620| 
